00000000  7F45              jg 0x47
00000002  4C                dec sp
00000003  46                inc si
00000004  0201              add al,[bx+di]
00000006  0100              add [bx+si],ax
00000008  0000              add [bx+si],al
0000000A  0000              add [bx+si],al
0000000C  0000              add [bx+si],al
0000000E  0000              add [bx+si],al
00000010  0200              add al,[bx+si]
00000012  3E0001            add [ds:bx+di],al
00000015  0000              add [bx+si],al
00000017  0010              add [bx+si],dl
00000019  0440              add al,0x40
0000001B  0000              add [bx+si],al
0000001D  0000              add [bx+si],al
0000001F  004000            add [bx+si+0x0],al
00000022  0000              add [bx+si],al
00000024  0000              add [bx+si],al
00000026  0000              add [bx+si],al
00000028  48                dec ax
00000029  1100              adc [bx+si],ax
0000002B  0000              add [bx+si],al
0000002D  0000              add [bx+si],al
0000002F  0000              add [bx+si],al
00000031  0000              add [bx+si],al
00000033  004000            add [bx+si+0x0],al
00000036  3800              cmp [bx+si],al
00000038  0900              or [bx+si],ax
0000003A  40                inc ax
0000003B  001E001B          add [0x1b00],bl
0000003F  00060000          add [0x0],al
00000043  0005              add [di],al
00000045  0000              add [bx+si],al
00000047  004000            add [bx+si+0x0],al
0000004A  0000              add [bx+si],al
0000004C  0000              add [bx+si],al
0000004E  0000              add [bx+si],al
00000050  40                inc ax
00000051  004000            add [bx+si+0x0],al
00000054  0000              add [bx+si],al
00000056  0000              add [bx+si],al
00000058  40                inc ax
00000059  004000            add [bx+si+0x0],al
0000005C  0000              add [bx+si],al
0000005E  0000              add [bx+si],al
00000060  F8                clc
00000061  0100              add [bx+si],ax
00000063  0000              add [bx+si],al
00000065  0000              add [bx+si],al
00000067  00F8              add al,bh
00000069  0100              add [bx+si],ax
0000006B  0000              add [bx+si],al
0000006D  0000              add [bx+si],al
0000006F  0008              add [bx+si],cl
00000071  0000              add [bx+si],al
00000073  0000              add [bx+si],al
00000075  0000              add [bx+si],al
00000077  0003              add [bp+di],al
00000079  0000              add [bx+si],al
0000007B  0004              add [si],al
0000007D  0000              add [bx+si],al
0000007F  0038              add [bx+si],bh
00000081  0200              add al,[bx+si]
00000083  0000              add [bx+si],al
00000085  0000              add [bx+si],al
00000087  0038              add [bx+si],bh
00000089  024000            add al,[bx+si+0x0]
0000008C  0000              add [bx+si],al
0000008E  0000              add [bx+si],al
00000090  3802              cmp [bp+si],al
00000092  40                inc ax
00000093  0000              add [bx+si],al
00000095  0000              add [bx+si],al
00000097  001C              add [si],bl
00000099  0000              add [bx+si],al
0000009B  0000              add [bx+si],al
0000009D  0000              add [bx+si],al
0000009F  001C              add [si],bl
000000A1  0000              add [bx+si],al
000000A3  0000              add [bx+si],al
000000A5  0000              add [bx+si],al
000000A7  0001              add [bx+di],al
000000A9  0000              add [bx+si],al
000000AB  0000              add [bx+si],al
000000AD  0000              add [bx+si],al
000000AF  0001              add [bx+di],al
000000B1  0000              add [bx+si],al
000000B3  0005              add [di],al
000000B5  0000              add [bx+si],al
000000B7  0000              add [bx+si],al
000000B9  0000              add [bx+si],al
000000BB  0000              add [bx+si],al
000000BD  0000              add [bx+si],al
000000BF  0000              add [bx+si],al
000000C1  004000            add [bx+si+0x0],al
000000C4  0000              add [bx+si],al
000000C6  0000              add [bx+si],al
000000C8  0000              add [bx+si],al
000000CA  40                inc ax
000000CB  0000              add [bx+si],al
000000CD  0000              add [bx+si],al
000000CF  00DC              add ah,bl
000000D1  06                push es
000000D2  0000              add [bx+si],al
000000D4  0000              add [bx+si],al
000000D6  0000              add [bx+si],al
000000D8  DC060000          fadd qword [0x0]
000000DC  0000              add [bx+si],al
000000DE  0000              add [bx+si],al
000000E0  0000              add [bx+si],al
000000E2  2000              and [bx+si],al
000000E4  0000              add [bx+si],al
000000E6  0000              add [bx+si],al
000000E8  0100              add [bx+si],ax
000000EA  0000              add [bx+si],al
000000EC  06                push es
000000ED  0000              add [bx+si],al
000000EF  0028              add [bx+si],ch
000000F1  0E                push cs
000000F2  0000              add [bx+si],al
000000F4  0000              add [bx+si],al
000000F6  0000              add [bx+si],al
000000F8  280E6000          sub [0x60],cl
000000FC  0000              add [bx+si],al
000000FE  0000              add [bx+si],al
00000100  280E6000          sub [0x60],cl
00000104  0000              add [bx+si],al
00000106  0000              add [bx+si],al
00000108  F8                clc
00000109  0100              add [bx+si],ax
0000010B  0000              add [bx+si],al
0000010D  0000              add [bx+si],al
0000010F  0008              add [bx+si],cl
00000111  0200              add al,[bx+si]
00000113  0000              add [bx+si],al
00000115  0000              add [bx+si],al
00000117  0000              add [bx+si],al
00000119  0020              add [bx+si],ah
0000011B  0000              add [bx+si],al
0000011D  0000              add [bx+si],al
0000011F  0002              add [bp+si],al
00000121  0000              add [bx+si],al
00000123  00060000          add [0x0],al
00000127  00500E            add [bx+si+0xe],dl
0000012A  0000              add [bx+si],al
0000012C  0000              add [bx+si],al
0000012E  0000              add [bx+si],al
00000130  50                push ax
00000131  0E                push cs
00000132  60                pushaw
00000133  0000              add [bx+si],al
00000135  0000              add [bx+si],al
00000137  00500E            add [bx+si+0xe],dl
0000013A  60                pushaw
0000013B  0000              add [bx+si],al
0000013D  0000              add [bx+si],al
0000013F  00900100          add [bx+si+0x1],dl
00000143  0000              add [bx+si],al
00000145  0000              add [bx+si],al
00000147  00900100          add [bx+si+0x1],dl
0000014B  0000              add [bx+si],al
0000014D  0000              add [bx+si],al
0000014F  0008              add [bx+si],cl
00000151  0000              add [bx+si],al
00000153  0000              add [bx+si],al
00000155  0000              add [bx+si],al
00000157  0004              add [si],al
00000159  0000              add [bx+si],al
0000015B  0004              add [si],al
0000015D  0000              add [bx+si],al
0000015F  005402            add [si+0x2],dl
00000162  0000              add [bx+si],al
00000164  0000              add [bx+si],al
00000166  0000              add [bx+si],al
00000168  54                push sp
00000169  024000            add al,[bx+si+0x0]
0000016C  0000              add [bx+si],al
0000016E  0000              add [bx+si],al
00000170  54                push sp
00000171  024000            add al,[bx+si+0x0]
00000174  0000              add [bx+si],al
00000176  0000              add [bx+si],al
00000178  44                inc sp
00000179  0000              add [bx+si],al
0000017B  0000              add [bx+si],al
0000017D  0000              add [bx+si],al
0000017F  004400            add [si+0x0],al
00000182  0000              add [bx+si],al
00000184  0000              add [bx+si],al
00000186  0000              add [bx+si],al
00000188  0400              add al,0x0
0000018A  0000              add [bx+si],al
0000018C  0000              add [bx+si],al
0000018E  0000              add [bx+si],al
00000190  50                push ax
00000191  E574              in ax,0x74
00000193  640400            fs add al,0x0
00000196  0000              add [bx+si],al
00000198  08060000          or [0x0],al
0000019C  0000              add [bx+si],al
0000019E  0000              add [bx+si],al
000001A0  08064000          or [0x40],al
000001A4  0000              add [bx+si],al
000001A6  0000              add [bx+si],al
000001A8  08064000          or [0x40],al
000001AC  0000              add [bx+si],al
000001AE  0000              add [bx+si],al
000001B0  2C00              sub al,0x0
000001B2  0000              add [bx+si],al
000001B4  0000              add [bx+si],al
000001B6  0000              add [bx+si],al
000001B8  2C00              sub al,0x0
000001BA  0000              add [bx+si],al
000001BC  0000              add [bx+si],al
000001BE  0000              add [bx+si],al
000001C0  0400              add al,0x0
000001C2  0000              add [bx+si],al
000001C4  0000              add [bx+si],al
000001C6  0000              add [bx+si],al
000001C8  51                push cx
000001C9  E574              in ax,0x74
000001CB  6406              fs push es
000001CD  0000              add [bx+si],al
000001CF  0000              add [bx+si],al
000001D1  0000              add [bx+si],al
000001D3  0000              add [bx+si],al
000001D5  0000              add [bx+si],al
000001D7  0000              add [bx+si],al
000001D9  0000              add [bx+si],al
000001DB  0000              add [bx+si],al
000001DD  0000              add [bx+si],al
000001DF  0000              add [bx+si],al
000001E1  0000              add [bx+si],al
000001E3  0000              add [bx+si],al
000001E5  0000              add [bx+si],al
000001E7  0000              add [bx+si],al
000001E9  0000              add [bx+si],al
000001EB  0000              add [bx+si],al
000001ED  0000              add [bx+si],al
000001EF  0000              add [bx+si],al
000001F1  0000              add [bx+si],al
000001F3  0000              add [bx+si],al
000001F5  0000              add [bx+si],al
000001F7  0008              add [bx+si],cl
000001F9  0000              add [bx+si],al
000001FB  0000              add [bx+si],al
000001FD  0000              add [bx+si],al
000001FF  0052E5            add [bp+si-0x1b],dl
00000202  7464              jz 0x268
00000204  0400              add al,0x0
00000206  0000              add [bx+si],al
00000208  280E0000          sub [0x0],cl
0000020C  0000              add [bx+si],al
0000020E  0000              add [bx+si],al
00000210  280E6000          sub [0x60],cl
00000214  0000              add [bx+si],al
00000216  0000              add [bx+si],al
00000218  280E6000          sub [0x60],cl
0000021C  0000              add [bx+si],al
0000021E  0000              add [bx+si],al
00000220  D801              fadd dword [bx+di]
00000222  0000              add [bx+si],al
00000224  0000              add [bx+si],al
00000226  0000              add [bx+si],al
00000228  D801              fadd dword [bx+di]
0000022A  0000              add [bx+si],al
0000022C  0000              add [bx+si],al
0000022E  0000              add [bx+si],al
00000230  0100              add [bx+si],ax
00000232  0000              add [bx+si],al
00000234  0000              add [bx+si],al
00000236  0000              add [bx+si],al
00000238  2F                das
00000239  6C                insb
0000023A  696236342F        imul sp,[bp+si+0x36],word 0x2f34
0000023F  6C                insb
00000240  642D6C69          fs sub ax,0x696c
00000244  6E                outsb
00000245  7578              jnz 0x2bf
00000247  2D7838            sub ax,0x3878
0000024A  362D3634          ss sub ax,0x3436
0000024E  2E736F            cs jnc 0x2c0
00000251  2E3200            xor al,[cs:bx+si]
00000254  0400              add al,0x0
00000256  0000              add [bx+si],al
00000258  1000              adc [bx+si],al
0000025A  0000              add [bx+si],al
0000025C  0100              add [bx+si],ax
0000025E  0000              add [bx+si],al
00000260  47                inc di
00000261  4E                dec si
00000262  55                push bp
00000263  0000              add [bx+si],al
00000265  0000              add [bx+si],al
00000267  0002              add [bp+si],al
00000269  0000              add [bx+si],al
0000026B  00060000          add [0x0],al
0000026F  0018              add [bx+si],bl
00000271  0000              add [bx+si],al
00000273  0004              add [si],al
00000275  0000              add [bx+si],al
00000277  0014              add [si],dl
00000279  0000              add [bx+si],al
0000027B  0003              add [bp+di],al
0000027D  0000              add [bx+si],al
0000027F  00474E            add [bx+0x4e],al
00000282  55                push bp
00000283  00CF              add bh,cl
00000285  99                cwd
00000286  014B2B            add [bp+di+0x2b],cx
00000289  5E                pop si
0000028A  B593              mov ch,0x93
0000028C  4C                dec sp
0000028D  E6ED              out 0xed,al
0000028F  DB930244          fist dword [bp+di+0x4402]
00000293  F67E41            idiv byte [bp+0x41]
00000296  BA0901            mov dx,0x109
00000299  0000              add [bx+si],al
0000029B  0001              add [bx+di],al
0000029D  0000              add [bx+si],al
0000029F  0001              add [bx+di],al
000002A1  0000              add [bx+si],al
000002A3  0000              add [bx+si],al
000002A5  0000              add [bx+si],al
000002A7  0000              add [bx+si],al
000002A9  0000              add [bx+si],al
000002AB  0000              add [bx+si],al
000002AD  0000              add [bx+si],al
000002AF  0000              add [bx+si],al
000002B1  0000              add [bx+si],al
000002B3  0000              add [bx+si],al
000002B5  0000              add [bx+si],al
000002B7  0000              add [bx+si],al
000002B9  0000              add [bx+si],al
000002BB  0000              add [bx+si],al
000002BD  0000              add [bx+si],al
000002BF  0000              add [bx+si],al
000002C1  0000              add [bx+si],al
000002C3  0000              add [bx+si],al
000002C5  0000              add [bx+si],al
000002C7  0000              add [bx+si],al
000002C9  0000              add [bx+si],al
000002CB  0000              add [bx+si],al
000002CD  0000              add [bx+si],al
000002CF  001A              add [bp+si],bl
000002D1  0000              add [bx+si],al
000002D3  0012              add [bp+si],dl
000002D5  0000              add [bx+si],al
000002D7  0000              add [bx+si],al
000002D9  0000              add [bx+si],al
000002DB  0000              add [bx+si],al
000002DD  0000              add [bx+si],al
000002DF  0000              add [bx+si],al
000002E1  0000              add [bx+si],al
000002E3  0000              add [bx+si],al
000002E5  0000              add [bx+si],al
000002E7  001F              add [bx],bl
000002E9  0000              add [bx+si],al
000002EB  0012              add [bp+si],dl
000002ED  0000              add [bx+si],al
000002EF  0000              add [bx+si],al
000002F1  0000              add [bx+si],al
000002F3  0000              add [bx+si],al
000002F5  0000              add [bx+si],al
000002F7  0000              add [bx+si],al
000002F9  0000              add [bx+si],al
000002FB  0000              add [bx+si],al
000002FD  0000              add [bx+si],al
000002FF  0001              add [bx+di],al
00000301  0000              add [bx+si],al
00000303  0020              add [bx+si],ah
00000305  0000              add [bx+si],al
00000307  0000              add [bx+si],al
00000309  0000              add [bx+si],al
0000030B  0000              add [bx+si],al
0000030D  0000              add [bx+si],al
0000030F  0000              add [bx+si],al
00000311  0000              add [bx+si],al
00000313  0000              add [bx+si],al
00000315  0000              add [bx+si],al
00000317  0000              add [bx+si],al
00000319  5F                pop di
0000031A  5F                pop di
0000031B  676D              a32 insw
0000031D  6F                outsw
0000031E  6E                outsb
0000031F  5F                pop di
00000320  7374              jnc 0x396
00000322  61                popaw
00000323  7274              jc 0x399
00000325  5F                pop di
00000326  5F                pop di
00000327  006C69            add [si+0x69],ch
0000032A  62632E            bound sp,[bp+di+0x2e]
0000032D  736F              jnc 0x39e
0000032F  2E36007075        add [ss:bx+si+0x75],dh
00000334  7473              jz 0x3a9
00000336  005F5F            add [bx+0x5f],bl
00000339  6C                insb
0000033A  6962635F73        imul sp,[bp+si+0x63],word 0x735f
0000033F  7461              jz 0x3a2
00000341  7274              jc 0x3b7
00000343  5F                pop di
00000344  6D                insw
00000345  61                popaw
00000346  696E00474C        imul bp,[bp+0x0],word 0x4c47
0000034B  49                dec cx
0000034C  42                inc dx
0000034D  43                inc bx
0000034E  5F                pop di
0000034F  322E322E          xor ch,[0x2e32]
00000353  350000            xor ax,0x0
00000356  0000              add [bx+si],al
00000358  0200              add al,[bx+si]
0000035A  0200              add al,[bx+si]
0000035C  0000              add [bx+si],al
0000035E  0000              add [bx+si],al
00000360  0100              add [bx+si],ax
00000362  0100              add [bx+si],ax
00000364  1000              adc [bx+si],al
00000366  0000              add [bx+si],al
00000368  1000              adc [bx+si],al
0000036A  0000              add [bx+si],al
0000036C  0000              add [bx+si],al
0000036E  0000              add [bx+si],al
00000370  751A              jnz 0x38c
00000372  69090000          imul cx,[bx+di],word 0x0
00000376  0200              add al,[bx+si]
00000378  3100              xor [bx+si],ax
0000037A  0000              add [bx+si],al
0000037C  0000              add [bx+si],al
0000037E  0000              add [bx+si],al
00000380  E00F              loopne 0x391
00000382  60                pushaw
00000383  0000              add [bx+si],al
00000385  0000              add [bx+si],al
00000387  00060000          add [0x0],al
0000038B  0003              add [bp+di],al
0000038D  0000              add [bx+si],al
0000038F  0000              add [bx+si],al
00000391  0000              add [bx+si],al
00000393  0000              add [bx+si],al
00000395  0000              add [bx+si],al
00000397  0000              add [bx+si],al
00000399  106000            adc [bx+si+0x0],ah
0000039C  0000              add [bx+si],al
0000039E  0000              add [bx+si],al
000003A0  07                pop es
000003A1  0000              add [bx+si],al
000003A3  0001              add [bx+di],al
000003A5  0000              add [bx+si],al
000003A7  0000              add [bx+si],al
000003A9  0000              add [bx+si],al
000003AB  0000              add [bx+si],al
000003AD  0000              add [bx+si],al
000003AF  0008              add [bx+si],cl
000003B1  106000            adc [bx+si+0x0],ah
000003B4  0000              add [bx+si],al
000003B6  0000              add [bx+si],al
000003B8  07                pop es
000003B9  0000              add [bx+si],al
000003BB  0002              add [bp+si],al
000003BD  0000              add [bx+si],al
000003BF  0000              add [bx+si],al
000003C1  0000              add [bx+si],al
000003C3  0000              add [bx+si],al
000003C5  0000              add [bx+si],al
000003C7  004883            add [bx+si-0x7d],cl
000003CA  EC                in al,dx
000003CB  08E8              or al,ch
000003CD  6B0000            imul ax,[bx+si],byte +0x0
000003D0  00E8              add al,ch
000003D2  FA                cli
000003D3  0000              add [bx+si],al
000003D5  00E8              add al,ch
000003D7  D501              aad 0x1
000003D9  0000              add [bx+si],al
000003DB  48                dec ax
000003DC  83C408            add sp,byte +0x8
000003DF  C3                ret
000003E0  FF35              push word [di]
000003E2  0A0C              or cl,[si]
000003E4  2000              and [bx+si],al
000003E6  FF25              jmp word near [di]
000003E8  0C0C              or al,0xc
000003EA  2000              and [bx+si],al
000003EC  0F1F4000          nop word [bx+si+0x0]
000003F0  FF25              jmp word near [di]
000003F2  0A0C              or cl,[si]
000003F4  2000              and [bx+si],al
000003F6  680000            push word 0x0
000003F9  0000              add [bx+si],al
000003FB  E9E0FF            jmp word 0x3de
000003FE  FF                db 0xff
000003FF  FF                db 0xff
00000400  FF25              jmp word near [di]
00000402  020C              add cl,[si]
00000404  2000              and [bx+si],al
00000406  680100            push word 0x1
00000409  0000              add [bx+si],al
0000040B  E9D0FF            jmp word 0x3de
0000040E  FF                db 0xff
0000040F  FF31              push word [bx+di]
00000411  ED                in ax,dx
00000412  49                dec cx
00000413  89D1              mov cx,dx
00000415  5E                pop si
00000416  48                dec ax
00000417  89E2              mov dx,sp
00000419  48                dec ax
0000041A  83E4F0            and sp,byte -0x10
0000041D  50                push ax
0000041E  54                push sp
0000041F  49                dec cx
00000420  C7C0A005          mov ax,0x5a0
00000424  40                inc ax
00000425  0048C7            add [bx+si-0x39],cl
00000428  C11005            rcl word [bx+si],0x5
0000042B  40                inc ax
0000042C  0048C7            add [bx+si-0x39],cl
0000042F  C7                db 0xc7
00000430  F4                hlt
00000431  0440              add al,0x40
00000433  00E8              add al,ch
00000435  C7                db 0xc7
00000436  FF                db 0xff
00000437  FF                db 0xff
00000438  FFF4              push sp
0000043A  90                nop
0000043B  90                nop
0000043C  48                dec ax
0000043D  83EC08            sub sp,byte +0x8
00000440  48                dec ax
00000441  8B05              mov ax,[di]
00000443  99                cwd
00000444  0B20              or sp,[bx+si]
00000446  004885            add [bx+si-0x7b],cl
00000449  C0                db 0xc0
0000044A  7402              jz 0x44e
0000044C  FFD0              call ax
0000044E  48                dec ax
0000044F  83C408            add sp,byte +0x8
00000452  C3                ret
00000453  90                nop
00000454  90                nop
00000455  90                nop
00000456  90                nop
00000457  90                nop
00000458  90                nop
00000459  90                nop
0000045A  90                nop
0000045B  90                nop
0000045C  90                nop
0000045D  90                nop
0000045E  90                nop
0000045F  90                nop
00000460  55                push bp
00000461  48                dec ax
00000462  89E5              mov bp,sp
00000464  53                push bx
00000465  48                dec ax
00000466  83EC08            sub sp,byte +0x8
00000469  803DB0            cmp byte [di],0xb0
0000046C  0B20              or sp,[bx+si]
0000046E  0000              add [bx+si],al
00000470  754B              jnz 0x4bd
00000472  BB400E            mov bx,0xe40
00000475  60                pushaw
00000476  00488B            add [bx+si-0x75],cl
00000479  05AA0B            add ax,0xbaa
0000047C  2000              and [bx+si],al
0000047E  48                dec ax
0000047F  81EB380E          sub bx,0xe38
00000483  60                pushaw
00000484  0048C1            add [bx+si-0x3f],cl
00000487  FB                sti
00000488  034883            add cx,[bx+si-0x7d]
0000048B  EB01              jmp short 0x48e
0000048D  48                dec ax
0000048E  39D8              cmp ax,bx
00000490  7324              jnc 0x4b6
00000492  660F1F4400        nop dword [si+0x0]
00000497  004883            add [bx+si-0x7d],cl
0000049A  C00148            rol byte [bx+di],0x48
0000049D  8905              mov [di],ax
0000049F  850B              test [bp+di],cx
000004A1  2000              and [bx+si],al
000004A3  FF14              call word near [si]
000004A5  C538              lds di,[bx+si]
000004A7  0E                push cs
000004A8  60                pushaw
000004A9  00488B            add [bx+si-0x75],cl
000004AC  05770B            add ax,0xb77
000004AF  2000              and [bx+si],al
000004B1  48                dec ax
000004B2  39D8              cmp ax,bx
000004B4  72E2              jc 0x498
000004B6  C60563            mov byte [di],0x63
000004B9  0B20              or sp,[bx+si]
000004BB  0001              add [bx+di],al
000004BD  48                dec ax
000004BE  83C408            add sp,byte +0x8
000004C1  5B                pop bx
000004C2  5D                pop bp
000004C3  C3                ret
000004C4  6666662E0F1F8400  nop dword [cs:si+0x0]
         -00
000004CD  0000              add [bx+si],al
000004CF  004883            add [bx+si-0x7d],cl
000004D2  3D7009            cmp ax,0x970
000004D5  2000              and [bx+si],al
000004D7  005548            add [di+0x48],dl
000004DA  89E5              mov bp,sp
000004DC  7412              jz 0x4f0
000004DE  B80000            mov ax,0x0
000004E1  0000              add [bx+si],al
000004E3  48                dec ax
000004E4  85C0              test ax,ax
000004E6  7408              jz 0x4f0
000004E8  5D                pop bp
000004E9  BF480E            mov di,0xe48
000004EC  60                pushaw
000004ED  00FF              add bh,bh
000004EF  E05D              loopne 0x54e
000004F1  C3                ret
000004F2  90                nop
000004F3  90                nop
000004F4  55                push bp
000004F5  48                dec ax
000004F6  89E5              mov bp,sp
000004F8  BFFC05            mov di,0x5fc
000004FB  40                inc ax
000004FC  00E8              add al,ch
000004FE  EE                out dx,al
000004FF  FE                db 0xfe
00000500  FF                db 0xff
00000501  FF5DC3            call word far [di-0x3d]
00000504  90                nop
00000505  90                nop
00000506  90                nop
00000507  90                nop
00000508  90                nop
00000509  90                nop
0000050A  90                nop
0000050B  90                nop
0000050C  90                nop
0000050D  90                nop
0000050E  90                nop
0000050F  90                nop
00000510  48                dec ax
00000511  896C24            mov [si+0x24],bp
00000514  D84C89            fmul dword [si-0x77]
00000517  6424E0            fs and al,0xe0
0000051A  48                dec ax
0000051B  8D2D              lea bp,[di]
0000051D  0309              add cx,[bx+di]
0000051F  2000              and [bx+si],al
00000521  4C                dec sp
00000522  8D25              lea sp,[di]
00000524  FC                cld
00000525  0820              or [bx+si],ah
00000527  004C89            add [si-0x77],cl
0000052A  6C                insb
0000052B  24E8              and al,0xe8
0000052D  4C                dec sp
0000052E  897424            mov [si+0x24],si
00000531  F04C              lock dec sp
00000533  897C24            mov [si+0x24],di
00000536  F8                clc
00000537  48                dec ax
00000538  895C24            mov [si+0x24],bx
0000053B  D04883            ror byte [bx+si-0x7d],1
0000053E  EC                in al,dx
0000053F  384C29            cmp [si+0x29],cl
00000542  E541              in ax,0x41
00000544  89FD              mov bp,di
00000546  49                dec cx
00000547  89F6              mov si,si
00000549  48                dec ax
0000054A  C1FD03            sar bp,0x3
0000054D  49                dec cx
0000054E  89D7              mov di,dx
00000550  E873FE            call word 0x3c6
00000553  FF                db 0xff
00000554  FF4885            dec word [bx+si-0x7b]
00000557  ED                in ax,dx
00000558  741C              jz 0x576
0000055A  31DB              xor bx,bx
0000055C  0F1F4000          nop word [bx+si+0x0]
00000560  4C                dec sp
00000561  89FA              mov dx,di
00000563  4C                dec sp
00000564  89F6              mov si,si
00000566  44                inc sp
00000567  89EF              mov di,bp
00000569  41                inc cx
0000056A  FF14              call word near [si]
0000056C  DC4883            fmul qword [bx+si-0x7d]
0000056F  C3                ret
00000570  014839            add [bx+si+0x39],cx
00000573  EB75              jmp short 0x5ea
00000575  EA488B5C24        jmp word 0x245c:0x8b48
0000057A  08488B            or [bx+si-0x75],cl
0000057D  6C                insb
0000057E  2410              and al,0x10
00000580  4C                dec sp
00000581  8B6424            mov sp,[si+0x24]
00000584  184C8B            sbb [si-0x75],cl
00000587  6C                insb
00000588  2420              and al,0x20
0000058A  4C                dec sp
0000058B  8B7424            mov si,[si+0x24]
0000058E  284C8B            sub [si-0x75],cl
00000591  7C24              jl 0x5b7
00000593  304883            xor [bx+si-0x7d],cl
00000596  C438              les di,[bx+si]
00000598  C3                ret
00000599  0F1F800000        nop word [bx+si+0x0]
0000059E  0000              add [bx+si],al
000005A0  F3C3              rep ret
000005A2  90                nop
000005A3  90                nop
000005A4  90                nop
000005A5  90                nop
000005A6  90                nop
000005A7  90                nop
000005A8  90                nop
000005A9  90                nop
000005AA  90                nop
000005AB  90                nop
000005AC  90                nop
000005AD  90                nop
000005AE  90                nop
000005AF  90                nop
000005B0  55                push bp
000005B1  48                dec ax
000005B2  89E5              mov bp,sp
000005B4  53                push bx
000005B5  48                dec ax
000005B6  83EC08            sub sp,byte +0x8
000005B9  48                dec ax
000005BA  8B05              mov ax,[di]
000005BC  680820            push word 0x2008
000005BF  004883            add [bx+si-0x7d],cl
000005C2  F8                clc
000005C3  FF7419            push word [si+0x19]
000005C6  BB280E            mov bx,0xe28
000005C9  60                pushaw
000005CA  000F              add [bx],cl
000005CC  1F                pop ds
000005CD  44                inc sp
000005CE  0000              add [bx+si],al
000005D0  48                dec ax
000005D1  83EB08            sub bx,byte +0x8
000005D4  FFD0              call ax
000005D6  48                dec ax
000005D7  8B03              mov ax,[bp+di]
000005D9  48                dec ax
000005DA  83F8FF            cmp ax,byte -0x1
000005DD  75F1              jnz 0x5d0
000005DF  48                dec ax
000005E0  83C408            add sp,byte +0x8
000005E3  5B                pop bx
000005E4  5D                pop bp
000005E5  C3                ret
000005E6  90                nop
000005E7  90                nop
000005E8  48                dec ax
000005E9  83EC08            sub sp,byte +0x8
000005EC  E86FFE            call word 0x45e
000005EF  FF                db 0xff
000005F0  FF4883            dec word [bx+si-0x7d]
000005F3  C408              les cx,[bx+si]
000005F5  C3                ret
000005F6  0000              add [bx+si],al
000005F8  0100              add [bx+si],ax
000005FA  0200              add al,[bx+si]
000005FC  68656C            push word 0x6c65
000005FF  6C                insb
00000600  6F                outsw
00000601  20776F            and [bx+0x6f],dh
00000604  726C              jc 0x672
00000606  640001            add [fs:bx+di],al
00000609  1B03              sbb ax,[bp+di]
0000060B  3B2C              cmp bp,[si]
0000060D  0000              add [bx+si],al
0000060F  0004              add [si],al
00000611  0000              add [bx+si],al
00000613  00D8              add al,bl
00000615  FD                std
00000616  FF                db 0xff
00000617  FF4800            dec word [bx+si+0x0]
0000061A  0000              add [bx+si],al
0000061C  EC                in al,dx
0000061D  FE                db 0xfe
0000061E  FF                db 0xff
0000061F  FF7000            push word [bx+si+0x0]
00000622  0000              add [bx+si],al
00000624  08FF              or bh,bh
00000626  FF                db 0xff
00000627  FF900000          call word near [bx+si+0x0]
0000062B  0098FFFF          add [bx+si-0x1],bl
0000062F  FF                db 0xff
00000630  B80000            mov ax,0x0
00000633  0000              add [bx+si],al
00000635  0000              add [bx+si],al
00000637  0014              add [si],dl
00000639  0000              add [bx+si],al
0000063B  0000              add [bx+si],al
0000063D  0000              add [bx+si],al
0000063F  0001              add [bx+di],al
00000641  7A52              jpe 0x695
00000643  0001              add [bx+di],al
00000645  7810              js 0x657
00000647  011B              add [bp+di],bx
00000649  0C07              or al,0x7
0000064B  08900100          or [bx+si+0x1],dl
0000064F  0024              add [si],ah
00000651  0000              add [bx+si],al
00000653  001C              add [si],bl
00000655  0000              add [bx+si],al
00000657  0088FDFF          add [bx+si-0x3],cl
0000065B  FF30              push word [bx+si]
0000065D  0000              add [bx+si],al
0000065F  0000              add [bx+si],al
00000661  0E                push cs
00000662  10460E            adc [bp+0xe],al
00000665  184A0F            sbb [bp+si+0xf],cl
00000668  0B7708            or si,[bx+0x8]
0000066B  80003F            add byte [bx+si],0x3f
0000066E  1A3B              sbb bh,[bp+di]
00000670  2A33              sub dh,[bp+di]
00000672  2422              and al,0x22
00000674  0000              add [bx+si],al
00000676  0000              add [bx+si],al
00000678  1C00              sbb al,0x0
0000067A  0000              add [bx+si],al
0000067C  44                inc sp
0000067D  0000              add [bx+si],al
0000067F  0074FE            add [si-0x2],dh
00000682  FF                db 0xff
00000683  FF10              call word near [bx+si]
00000685  0000              add [bx+si],al
00000687  0000              add [bx+si],al
00000689  41                inc cx
0000068A  0E                push cs
0000068B  10860243          adc [bp+0x4302],al
0000068F  0D064B            or ax,0x4b06
00000692  0C07              or al,0x7
00000694  0800              or [bx+si],al
00000696  0000              add [bx+si],al
00000698  2400              and al,0x0
0000069A  0000              add [bx+si],al
0000069C  640000            add [fs:bx+si],al
0000069F  0070FE            add [bx+si-0x2],dh
000006A2  FF                db 0xff
000006A3  FF890000          dec word [bx+di+0x0]
000006A7  0000              add [bx+si],al
000006A9  51                push cx
000006AA  8C05              mov [di],es
000006AC  86065F0E          xchg al,[0xe5f]
000006B0  40                inc ax
000006B1  83078F            add word [bx],byte -0x71
000006B4  028E038D          add cl,[bp-0x72fd]
000006B8  0402              add al,0x2
000006BA  58                pop ax
000006BB  0E                push cs
000006BC  0800              or [bx+si],al
000006BE  0000              add [bx+si],al
000006C0  1400              adc al,0x0
000006C2  0000              add [bx+si],al
000006C4  8C00              mov [bx+si],es
000006C6  0000              add [bx+si],al
000006C8  D8FE              fdivr st6
000006CA  FF                db 0xff
000006CB  FF02              inc word [bp+si]
000006CD  0000              add [bx+si],al
000006CF  0000              add [bx+si],al
000006D1  0000              add [bx+si],al
000006D3  0000              add [bx+si],al
000006D5  0000              add [bx+si],al
000006D7  0000              add [bx+si],al
000006D9  0000              add [bx+si],al
000006DB  0000              add [bx+si],al
000006DD  0000              add [bx+si],al
000006DF  0000              add [bx+si],al
000006E1  0000              add [bx+si],al
000006E3  0000              add [bx+si],al
000006E5  0000              add [bx+si],al
000006E7  0000              add [bx+si],al
000006E9  0000              add [bx+si],al
000006EB  0000              add [bx+si],al
000006ED  0000              add [bx+si],al
000006EF  0000              add [bx+si],al
000006F1  0000              add [bx+si],al
000006F3  0000              add [bx+si],al
000006F5  0000              add [bx+si],al
000006F7  0000              add [bx+si],al
000006F9  0000              add [bx+si],al
000006FB  0000              add [bx+si],al
000006FD  0000              add [bx+si],al
000006FF  0000              add [bx+si],al
00000701  0000              add [bx+si],al
00000703  0000              add [bx+si],al
00000705  0000              add [bx+si],al
00000707  0000              add [bx+si],al
00000709  0000              add [bx+si],al
0000070B  0000              add [bx+si],al
0000070D  0000              add [bx+si],al
0000070F  0000              add [bx+si],al
00000711  0000              add [bx+si],al
00000713  0000              add [bx+si],al
00000715  0000              add [bx+si],al
00000717  0000              add [bx+si],al
00000719  0000              add [bx+si],al
0000071B  0000              add [bx+si],al
0000071D  0000              add [bx+si],al
0000071F  0000              add [bx+si],al
00000721  0000              add [bx+si],al
00000723  0000              add [bx+si],al
00000725  0000              add [bx+si],al
00000727  0000              add [bx+si],al
00000729  0000              add [bx+si],al
0000072B  0000              add [bx+si],al
0000072D  0000              add [bx+si],al
0000072F  0000              add [bx+si],al
00000731  0000              add [bx+si],al
00000733  0000              add [bx+si],al
00000735  0000              add [bx+si],al
00000737  0000              add [bx+si],al
00000739  0000              add [bx+si],al
0000073B  0000              add [bx+si],al
0000073D  0000              add [bx+si],al
0000073F  0000              add [bx+si],al
00000741  0000              add [bx+si],al
00000743  0000              add [bx+si],al
00000745  0000              add [bx+si],al
00000747  0000              add [bx+si],al
00000749  0000              add [bx+si],al
0000074B  0000              add [bx+si],al
0000074D  0000              add [bx+si],al
0000074F  0000              add [bx+si],al
00000751  0000              add [bx+si],al
00000753  0000              add [bx+si],al
00000755  0000              add [bx+si],al
00000757  0000              add [bx+si],al
00000759  0000              add [bx+si],al
0000075B  0000              add [bx+si],al
0000075D  0000              add [bx+si],al
0000075F  0000              add [bx+si],al
00000761  0000              add [bx+si],al
00000763  0000              add [bx+si],al
00000765  0000              add [bx+si],al
00000767  0000              add [bx+si],al
00000769  0000              add [bx+si],al
0000076B  0000              add [bx+si],al
0000076D  0000              add [bx+si],al
0000076F  0000              add [bx+si],al
00000771  0000              add [bx+si],al
00000773  0000              add [bx+si],al
00000775  0000              add [bx+si],al
00000777  0000              add [bx+si],al
00000779  0000              add [bx+si],al
0000077B  0000              add [bx+si],al
0000077D  0000              add [bx+si],al
0000077F  0000              add [bx+si],al
00000781  0000              add [bx+si],al
00000783  0000              add [bx+si],al
00000785  0000              add [bx+si],al
00000787  0000              add [bx+si],al
00000789  0000              add [bx+si],al
0000078B  0000              add [bx+si],al
0000078D  0000              add [bx+si],al
0000078F  0000              add [bx+si],al
00000791  0000              add [bx+si],al
00000793  0000              add [bx+si],al
00000795  0000              add [bx+si],al
00000797  0000              add [bx+si],al
00000799  0000              add [bx+si],al
0000079B  0000              add [bx+si],al
0000079D  0000              add [bx+si],al
0000079F  0000              add [bx+si],al
000007A1  0000              add [bx+si],al
000007A3  0000              add [bx+si],al
000007A5  0000              add [bx+si],al
000007A7  0000              add [bx+si],al
000007A9  0000              add [bx+si],al
000007AB  0000              add [bx+si],al
000007AD  0000              add [bx+si],al
000007AF  0000              add [bx+si],al
000007B1  0000              add [bx+si],al
000007B3  0000              add [bx+si],al
000007B5  0000              add [bx+si],al
000007B7  0000              add [bx+si],al
000007B9  0000              add [bx+si],al
000007BB  0000              add [bx+si],al
000007BD  0000              add [bx+si],al
000007BF  0000              add [bx+si],al
000007C1  0000              add [bx+si],al
000007C3  0000              add [bx+si],al
000007C5  0000              add [bx+si],al
000007C7  0000              add [bx+si],al
000007C9  0000              add [bx+si],al
000007CB  0000              add [bx+si],al
000007CD  0000              add [bx+si],al
000007CF  0000              add [bx+si],al
000007D1  0000              add [bx+si],al
000007D3  0000              add [bx+si],al
000007D5  0000              add [bx+si],al
000007D7  0000              add [bx+si],al
000007D9  0000              add [bx+si],al
000007DB  0000              add [bx+si],al
000007DD  0000              add [bx+si],al
000007DF  0000              add [bx+si],al
000007E1  0000              add [bx+si],al
000007E3  0000              add [bx+si],al
000007E5  0000              add [bx+si],al
000007E7  0000              add [bx+si],al
000007E9  0000              add [bx+si],al
000007EB  0000              add [bx+si],al
000007ED  0000              add [bx+si],al
000007EF  0000              add [bx+si],al
000007F1  0000              add [bx+si],al
000007F3  0000              add [bx+si],al
000007F5  0000              add [bx+si],al
000007F7  0000              add [bx+si],al
000007F9  0000              add [bx+si],al
000007FB  0000              add [bx+si],al
000007FD  0000              add [bx+si],al
000007FF  0000              add [bx+si],al
00000801  0000              add [bx+si],al
00000803  0000              add [bx+si],al
00000805  0000              add [bx+si],al
00000807  0000              add [bx+si],al
00000809  0000              add [bx+si],al
0000080B  0000              add [bx+si],al
0000080D  0000              add [bx+si],al
0000080F  0000              add [bx+si],al
00000811  0000              add [bx+si],al
00000813  0000              add [bx+si],al
00000815  0000              add [bx+si],al
00000817  0000              add [bx+si],al
00000819  0000              add [bx+si],al
0000081B  0000              add [bx+si],al
0000081D  0000              add [bx+si],al
0000081F  0000              add [bx+si],al
00000821  0000              add [bx+si],al
00000823  0000              add [bx+si],al
00000825  0000              add [bx+si],al
00000827  0000              add [bx+si],al
00000829  0000              add [bx+si],al
0000082B  0000              add [bx+si],al
0000082D  0000              add [bx+si],al
0000082F  0000              add [bx+si],al
00000831  0000              add [bx+si],al
00000833  0000              add [bx+si],al
00000835  0000              add [bx+si],al
00000837  0000              add [bx+si],al
00000839  0000              add [bx+si],al
0000083B  0000              add [bx+si],al
0000083D  0000              add [bx+si],al
0000083F  0000              add [bx+si],al
00000841  0000              add [bx+si],al
00000843  0000              add [bx+si],al
00000845  0000              add [bx+si],al
00000847  0000              add [bx+si],al
00000849  0000              add [bx+si],al
0000084B  0000              add [bx+si],al
0000084D  0000              add [bx+si],al
0000084F  0000              add [bx+si],al
00000851  0000              add [bx+si],al
00000853  0000              add [bx+si],al
00000855  0000              add [bx+si],al
00000857  0000              add [bx+si],al
00000859  0000              add [bx+si],al
0000085B  0000              add [bx+si],al
0000085D  0000              add [bx+si],al
0000085F  0000              add [bx+si],al
00000861  0000              add [bx+si],al
00000863  0000              add [bx+si],al
00000865  0000              add [bx+si],al
00000867  0000              add [bx+si],al
00000869  0000              add [bx+si],al
0000086B  0000              add [bx+si],al
0000086D  0000              add [bx+si],al
0000086F  0000              add [bx+si],al
00000871  0000              add [bx+si],al
00000873  0000              add [bx+si],al
00000875  0000              add [bx+si],al
00000877  0000              add [bx+si],al
00000879  0000              add [bx+si],al
0000087B  0000              add [bx+si],al
0000087D  0000              add [bx+si],al
0000087F  0000              add [bx+si],al
00000881  0000              add [bx+si],al
00000883  0000              add [bx+si],al
00000885  0000              add [bx+si],al
00000887  0000              add [bx+si],al
00000889  0000              add [bx+si],al
0000088B  0000              add [bx+si],al
0000088D  0000              add [bx+si],al
0000088F  0000              add [bx+si],al
00000891  0000              add [bx+si],al
00000893  0000              add [bx+si],al
00000895  0000              add [bx+si],al
00000897  0000              add [bx+si],al
00000899  0000              add [bx+si],al
0000089B  0000              add [bx+si],al
0000089D  0000              add [bx+si],al
0000089F  0000              add [bx+si],al
000008A1  0000              add [bx+si],al
000008A3  0000              add [bx+si],al
000008A5  0000              add [bx+si],al
000008A7  0000              add [bx+si],al
000008A9  0000              add [bx+si],al
000008AB  0000              add [bx+si],al
000008AD  0000              add [bx+si],al
000008AF  0000              add [bx+si],al
000008B1  0000              add [bx+si],al
000008B3  0000              add [bx+si],al
000008B5  0000              add [bx+si],al
000008B7  0000              add [bx+si],al
000008B9  0000              add [bx+si],al
000008BB  0000              add [bx+si],al
000008BD  0000              add [bx+si],al
000008BF  0000              add [bx+si],al
000008C1  0000              add [bx+si],al
000008C3  0000              add [bx+si],al
000008C5  0000              add [bx+si],al
000008C7  0000              add [bx+si],al
000008C9  0000              add [bx+si],al
000008CB  0000              add [bx+si],al
000008CD  0000              add [bx+si],al
000008CF  0000              add [bx+si],al
000008D1  0000              add [bx+si],al
000008D3  0000              add [bx+si],al
000008D5  0000              add [bx+si],al
000008D7  0000              add [bx+si],al
000008D9  0000              add [bx+si],al
000008DB  0000              add [bx+si],al
000008DD  0000              add [bx+si],al
000008DF  0000              add [bx+si],al
000008E1  0000              add [bx+si],al
000008E3  0000              add [bx+si],al
000008E5  0000              add [bx+si],al
000008E7  0000              add [bx+si],al
000008E9  0000              add [bx+si],al
000008EB  0000              add [bx+si],al
000008ED  0000              add [bx+si],al
000008EF  0000              add [bx+si],al
000008F1  0000              add [bx+si],al
000008F3  0000              add [bx+si],al
000008F5  0000              add [bx+si],al
000008F7  0000              add [bx+si],al
000008F9  0000              add [bx+si],al
000008FB  0000              add [bx+si],al
000008FD  0000              add [bx+si],al
000008FF  0000              add [bx+si],al
00000901  0000              add [bx+si],al
00000903  0000              add [bx+si],al
00000905  0000              add [bx+si],al
00000907  0000              add [bx+si],al
00000909  0000              add [bx+si],al
0000090B  0000              add [bx+si],al
0000090D  0000              add [bx+si],al
0000090F  0000              add [bx+si],al
00000911  0000              add [bx+si],al
00000913  0000              add [bx+si],al
00000915  0000              add [bx+si],al
00000917  0000              add [bx+si],al
00000919  0000              add [bx+si],al
0000091B  0000              add [bx+si],al
0000091D  0000              add [bx+si],al
0000091F  0000              add [bx+si],al
00000921  0000              add [bx+si],al
00000923  0000              add [bx+si],al
00000925  0000              add [bx+si],al
00000927  0000              add [bx+si],al
00000929  0000              add [bx+si],al
0000092B  0000              add [bx+si],al
0000092D  0000              add [bx+si],al
0000092F  0000              add [bx+si],al
00000931  0000              add [bx+si],al
00000933  0000              add [bx+si],al
00000935  0000              add [bx+si],al
00000937  0000              add [bx+si],al
00000939  0000              add [bx+si],al
0000093B  0000              add [bx+si],al
0000093D  0000              add [bx+si],al
0000093F  0000              add [bx+si],al
00000941  0000              add [bx+si],al
00000943  0000              add [bx+si],al
00000945  0000              add [bx+si],al
00000947  0000              add [bx+si],al
00000949  0000              add [bx+si],al
0000094B  0000              add [bx+si],al
0000094D  0000              add [bx+si],al
0000094F  0000              add [bx+si],al
00000951  0000              add [bx+si],al
00000953  0000              add [bx+si],al
00000955  0000              add [bx+si],al
00000957  0000              add [bx+si],al
00000959  0000              add [bx+si],al
0000095B  0000              add [bx+si],al
0000095D  0000              add [bx+si],al
0000095F  0000              add [bx+si],al
00000961  0000              add [bx+si],al
00000963  0000              add [bx+si],al
00000965  0000              add [bx+si],al
00000967  0000              add [bx+si],al
00000969  0000              add [bx+si],al
0000096B  0000              add [bx+si],al
0000096D  0000              add [bx+si],al
0000096F  0000              add [bx+si],al
00000971  0000              add [bx+si],al
00000973  0000              add [bx+si],al
00000975  0000              add [bx+si],al
00000977  0000              add [bx+si],al
00000979  0000              add [bx+si],al
0000097B  0000              add [bx+si],al
0000097D  0000              add [bx+si],al
0000097F  0000              add [bx+si],al
00000981  0000              add [bx+si],al
00000983  0000              add [bx+si],al
00000985  0000              add [bx+si],al
00000987  0000              add [bx+si],al
00000989  0000              add [bx+si],al
0000098B  0000              add [bx+si],al
0000098D  0000              add [bx+si],al
0000098F  0000              add [bx+si],al
00000991  0000              add [bx+si],al
00000993  0000              add [bx+si],al
00000995  0000              add [bx+si],al
00000997  0000              add [bx+si],al
00000999  0000              add [bx+si],al
0000099B  0000              add [bx+si],al
0000099D  0000              add [bx+si],al
0000099F  0000              add [bx+si],al
000009A1  0000              add [bx+si],al
000009A3  0000              add [bx+si],al
000009A5  0000              add [bx+si],al
000009A7  0000              add [bx+si],al
000009A9  0000              add [bx+si],al
000009AB  0000              add [bx+si],al
000009AD  0000              add [bx+si],al
000009AF  0000              add [bx+si],al
000009B1  0000              add [bx+si],al
000009B3  0000              add [bx+si],al
000009B5  0000              add [bx+si],al
000009B7  0000              add [bx+si],al
000009B9  0000              add [bx+si],al
000009BB  0000              add [bx+si],al
000009BD  0000              add [bx+si],al
000009BF  0000              add [bx+si],al
000009C1  0000              add [bx+si],al
000009C3  0000              add [bx+si],al
000009C5  0000              add [bx+si],al
000009C7  0000              add [bx+si],al
000009C9  0000              add [bx+si],al
000009CB  0000              add [bx+si],al
000009CD  0000              add [bx+si],al
000009CF  0000              add [bx+si],al
000009D1  0000              add [bx+si],al
000009D3  0000              add [bx+si],al
000009D5  0000              add [bx+si],al
000009D7  0000              add [bx+si],al
000009D9  0000              add [bx+si],al
000009DB  0000              add [bx+si],al
000009DD  0000              add [bx+si],al
000009DF  0000              add [bx+si],al
000009E1  0000              add [bx+si],al
000009E3  0000              add [bx+si],al
000009E5  0000              add [bx+si],al
000009E7  0000              add [bx+si],al
000009E9  0000              add [bx+si],al
000009EB  0000              add [bx+si],al
000009ED  0000              add [bx+si],al
000009EF  0000              add [bx+si],al
000009F1  0000              add [bx+si],al
000009F3  0000              add [bx+si],al
000009F5  0000              add [bx+si],al
000009F7  0000              add [bx+si],al
000009F9  0000              add [bx+si],al
000009FB  0000              add [bx+si],al
000009FD  0000              add [bx+si],al
000009FF  0000              add [bx+si],al
00000A01  0000              add [bx+si],al
00000A03  0000              add [bx+si],al
00000A05  0000              add [bx+si],al
00000A07  0000              add [bx+si],al
00000A09  0000              add [bx+si],al
00000A0B  0000              add [bx+si],al
00000A0D  0000              add [bx+si],al
00000A0F  0000              add [bx+si],al
00000A11  0000              add [bx+si],al
00000A13  0000              add [bx+si],al
00000A15  0000              add [bx+si],al
00000A17  0000              add [bx+si],al
00000A19  0000              add [bx+si],al
00000A1B  0000              add [bx+si],al
00000A1D  0000              add [bx+si],al
00000A1F  0000              add [bx+si],al
00000A21  0000              add [bx+si],al
00000A23  0000              add [bx+si],al
00000A25  0000              add [bx+si],al
00000A27  0000              add [bx+si],al
00000A29  0000              add [bx+si],al
00000A2B  0000              add [bx+si],al
00000A2D  0000              add [bx+si],al
00000A2F  0000              add [bx+si],al
00000A31  0000              add [bx+si],al
00000A33  0000              add [bx+si],al
00000A35  0000              add [bx+si],al
00000A37  0000              add [bx+si],al
00000A39  0000              add [bx+si],al
00000A3B  0000              add [bx+si],al
00000A3D  0000              add [bx+si],al
00000A3F  0000              add [bx+si],al
00000A41  0000              add [bx+si],al
00000A43  0000              add [bx+si],al
00000A45  0000              add [bx+si],al
00000A47  0000              add [bx+si],al
00000A49  0000              add [bx+si],al
00000A4B  0000              add [bx+si],al
00000A4D  0000              add [bx+si],al
00000A4F  0000              add [bx+si],al
00000A51  0000              add [bx+si],al
00000A53  0000              add [bx+si],al
00000A55  0000              add [bx+si],al
00000A57  0000              add [bx+si],al
00000A59  0000              add [bx+si],al
00000A5B  0000              add [bx+si],al
00000A5D  0000              add [bx+si],al
00000A5F  0000              add [bx+si],al
00000A61  0000              add [bx+si],al
00000A63  0000              add [bx+si],al
00000A65  0000              add [bx+si],al
00000A67  0000              add [bx+si],al
00000A69  0000              add [bx+si],al
00000A6B  0000              add [bx+si],al
00000A6D  0000              add [bx+si],al
00000A6F  0000              add [bx+si],al
00000A71  0000              add [bx+si],al
00000A73  0000              add [bx+si],al
00000A75  0000              add [bx+si],al
00000A77  0000              add [bx+si],al
00000A79  0000              add [bx+si],al
00000A7B  0000              add [bx+si],al
00000A7D  0000              add [bx+si],al
00000A7F  0000              add [bx+si],al
00000A81  0000              add [bx+si],al
00000A83  0000              add [bx+si],al
00000A85  0000              add [bx+si],al
00000A87  0000              add [bx+si],al
00000A89  0000              add [bx+si],al
00000A8B  0000              add [bx+si],al
00000A8D  0000              add [bx+si],al
00000A8F  0000              add [bx+si],al
00000A91  0000              add [bx+si],al
00000A93  0000              add [bx+si],al
00000A95  0000              add [bx+si],al
00000A97  0000              add [bx+si],al
00000A99  0000              add [bx+si],al
00000A9B  0000              add [bx+si],al
00000A9D  0000              add [bx+si],al
00000A9F  0000              add [bx+si],al
00000AA1  0000              add [bx+si],al
00000AA3  0000              add [bx+si],al
00000AA5  0000              add [bx+si],al
00000AA7  0000              add [bx+si],al
00000AA9  0000              add [bx+si],al
00000AAB  0000              add [bx+si],al
00000AAD  0000              add [bx+si],al
00000AAF  0000              add [bx+si],al
00000AB1  0000              add [bx+si],al
00000AB3  0000              add [bx+si],al
00000AB5  0000              add [bx+si],al
00000AB7  0000              add [bx+si],al
00000AB9  0000              add [bx+si],al
00000ABB  0000              add [bx+si],al
00000ABD  0000              add [bx+si],al
00000ABF  0000              add [bx+si],al
00000AC1  0000              add [bx+si],al
00000AC3  0000              add [bx+si],al
00000AC5  0000              add [bx+si],al
00000AC7  0000              add [bx+si],al
00000AC9  0000              add [bx+si],al
00000ACB  0000              add [bx+si],al
00000ACD  0000              add [bx+si],al
00000ACF  0000              add [bx+si],al
00000AD1  0000              add [bx+si],al
00000AD3  0000              add [bx+si],al
00000AD5  0000              add [bx+si],al
00000AD7  0000              add [bx+si],al
00000AD9  0000              add [bx+si],al
00000ADB  0000              add [bx+si],al
00000ADD  0000              add [bx+si],al
00000ADF  0000              add [bx+si],al
00000AE1  0000              add [bx+si],al
00000AE3  0000              add [bx+si],al
00000AE5  0000              add [bx+si],al
00000AE7  0000              add [bx+si],al
00000AE9  0000              add [bx+si],al
00000AEB  0000              add [bx+si],al
00000AED  0000              add [bx+si],al
00000AEF  0000              add [bx+si],al
00000AF1  0000              add [bx+si],al
00000AF3  0000              add [bx+si],al
00000AF5  0000              add [bx+si],al
00000AF7  0000              add [bx+si],al
00000AF9  0000              add [bx+si],al
00000AFB  0000              add [bx+si],al
00000AFD  0000              add [bx+si],al
00000AFF  0000              add [bx+si],al
00000B01  0000              add [bx+si],al
00000B03  0000              add [bx+si],al
00000B05  0000              add [bx+si],al
00000B07  0000              add [bx+si],al
00000B09  0000              add [bx+si],al
00000B0B  0000              add [bx+si],al
00000B0D  0000              add [bx+si],al
00000B0F  0000              add [bx+si],al
00000B11  0000              add [bx+si],al
00000B13  0000              add [bx+si],al
00000B15  0000              add [bx+si],al
00000B17  0000              add [bx+si],al
00000B19  0000              add [bx+si],al
00000B1B  0000              add [bx+si],al
00000B1D  0000              add [bx+si],al
00000B1F  0000              add [bx+si],al
00000B21  0000              add [bx+si],al
00000B23  0000              add [bx+si],al
00000B25  0000              add [bx+si],al
00000B27  0000              add [bx+si],al
00000B29  0000              add [bx+si],al
00000B2B  0000              add [bx+si],al
00000B2D  0000              add [bx+si],al
00000B2F  0000              add [bx+si],al
00000B31  0000              add [bx+si],al
00000B33  0000              add [bx+si],al
00000B35  0000              add [bx+si],al
00000B37  0000              add [bx+si],al
00000B39  0000              add [bx+si],al
00000B3B  0000              add [bx+si],al
00000B3D  0000              add [bx+si],al
00000B3F  0000              add [bx+si],al
00000B41  0000              add [bx+si],al
00000B43  0000              add [bx+si],al
00000B45  0000              add [bx+si],al
00000B47  0000              add [bx+si],al
00000B49  0000              add [bx+si],al
00000B4B  0000              add [bx+si],al
00000B4D  0000              add [bx+si],al
00000B4F  0000              add [bx+si],al
00000B51  0000              add [bx+si],al
00000B53  0000              add [bx+si],al
00000B55  0000              add [bx+si],al
00000B57  0000              add [bx+si],al
00000B59  0000              add [bx+si],al
00000B5B  0000              add [bx+si],al
00000B5D  0000              add [bx+si],al
00000B5F  0000              add [bx+si],al
00000B61  0000              add [bx+si],al
00000B63  0000              add [bx+si],al
00000B65  0000              add [bx+si],al
00000B67  0000              add [bx+si],al
00000B69  0000              add [bx+si],al
00000B6B  0000              add [bx+si],al
00000B6D  0000              add [bx+si],al
00000B6F  0000              add [bx+si],al
00000B71  0000              add [bx+si],al
00000B73  0000              add [bx+si],al
00000B75  0000              add [bx+si],al
00000B77  0000              add [bx+si],al
00000B79  0000              add [bx+si],al
00000B7B  0000              add [bx+si],al
00000B7D  0000              add [bx+si],al
00000B7F  0000              add [bx+si],al
00000B81  0000              add [bx+si],al
00000B83  0000              add [bx+si],al
00000B85  0000              add [bx+si],al
00000B87  0000              add [bx+si],al
00000B89  0000              add [bx+si],al
00000B8B  0000              add [bx+si],al
00000B8D  0000              add [bx+si],al
00000B8F  0000              add [bx+si],al
00000B91  0000              add [bx+si],al
00000B93  0000              add [bx+si],al
00000B95  0000              add [bx+si],al
00000B97  0000              add [bx+si],al
00000B99  0000              add [bx+si],al
00000B9B  0000              add [bx+si],al
00000B9D  0000              add [bx+si],al
00000B9F  0000              add [bx+si],al
00000BA1  0000              add [bx+si],al
00000BA3  0000              add [bx+si],al
00000BA5  0000              add [bx+si],al
00000BA7  0000              add [bx+si],al
00000BA9  0000              add [bx+si],al
00000BAB  0000              add [bx+si],al
00000BAD  0000              add [bx+si],al
00000BAF  0000              add [bx+si],al
00000BB1  0000              add [bx+si],al
00000BB3  0000              add [bx+si],al
00000BB5  0000              add [bx+si],al
00000BB7  0000              add [bx+si],al
00000BB9  0000              add [bx+si],al
00000BBB  0000              add [bx+si],al
00000BBD  0000              add [bx+si],al
00000BBF  0000              add [bx+si],al
00000BC1  0000              add [bx+si],al
00000BC3  0000              add [bx+si],al
00000BC5  0000              add [bx+si],al
00000BC7  0000              add [bx+si],al
00000BC9  0000              add [bx+si],al
00000BCB  0000              add [bx+si],al
00000BCD  0000              add [bx+si],al
00000BCF  0000              add [bx+si],al
00000BD1  0000              add [bx+si],al
00000BD3  0000              add [bx+si],al
00000BD5  0000              add [bx+si],al
00000BD7  0000              add [bx+si],al
00000BD9  0000              add [bx+si],al
00000BDB  0000              add [bx+si],al
00000BDD  0000              add [bx+si],al
00000BDF  0000              add [bx+si],al
00000BE1  0000              add [bx+si],al
00000BE3  0000              add [bx+si],al
00000BE5  0000              add [bx+si],al
00000BE7  0000              add [bx+si],al
00000BE9  0000              add [bx+si],al
00000BEB  0000              add [bx+si],al
00000BED  0000              add [bx+si],al
00000BEF  0000              add [bx+si],al
00000BF1  0000              add [bx+si],al
00000BF3  0000              add [bx+si],al
00000BF5  0000              add [bx+si],al
00000BF7  0000              add [bx+si],al
00000BF9  0000              add [bx+si],al
00000BFB  0000              add [bx+si],al
00000BFD  0000              add [bx+si],al
00000BFF  0000              add [bx+si],al
00000C01  0000              add [bx+si],al
00000C03  0000              add [bx+si],al
00000C05  0000              add [bx+si],al
00000C07  0000              add [bx+si],al
00000C09  0000              add [bx+si],al
00000C0B  0000              add [bx+si],al
00000C0D  0000              add [bx+si],al
00000C0F  0000              add [bx+si],al
00000C11  0000              add [bx+si],al
00000C13  0000              add [bx+si],al
00000C15  0000              add [bx+si],al
00000C17  0000              add [bx+si],al
00000C19  0000              add [bx+si],al
00000C1B  0000              add [bx+si],al
00000C1D  0000              add [bx+si],al
00000C1F  0000              add [bx+si],al
00000C21  0000              add [bx+si],al
00000C23  0000              add [bx+si],al
00000C25  0000              add [bx+si],al
00000C27  0000              add [bx+si],al
00000C29  0000              add [bx+si],al
00000C2B  0000              add [bx+si],al
00000C2D  0000              add [bx+si],al
00000C2F  0000              add [bx+si],al
00000C31  0000              add [bx+si],al
00000C33  0000              add [bx+si],al
00000C35  0000              add [bx+si],al
00000C37  0000              add [bx+si],al
00000C39  0000              add [bx+si],al
00000C3B  0000              add [bx+si],al
00000C3D  0000              add [bx+si],al
00000C3F  0000              add [bx+si],al
00000C41  0000              add [bx+si],al
00000C43  0000              add [bx+si],al
00000C45  0000              add [bx+si],al
00000C47  0000              add [bx+si],al
00000C49  0000              add [bx+si],al
00000C4B  0000              add [bx+si],al
00000C4D  0000              add [bx+si],al
00000C4F  0000              add [bx+si],al
00000C51  0000              add [bx+si],al
00000C53  0000              add [bx+si],al
00000C55  0000              add [bx+si],al
00000C57  0000              add [bx+si],al
00000C59  0000              add [bx+si],al
00000C5B  0000              add [bx+si],al
00000C5D  0000              add [bx+si],al
00000C5F  0000              add [bx+si],al
00000C61  0000              add [bx+si],al
00000C63  0000              add [bx+si],al
00000C65  0000              add [bx+si],al
00000C67  0000              add [bx+si],al
00000C69  0000              add [bx+si],al
00000C6B  0000              add [bx+si],al
00000C6D  0000              add [bx+si],al
00000C6F  0000              add [bx+si],al
00000C71  0000              add [bx+si],al
00000C73  0000              add [bx+si],al
00000C75  0000              add [bx+si],al
00000C77  0000              add [bx+si],al
00000C79  0000              add [bx+si],al
00000C7B  0000              add [bx+si],al
00000C7D  0000              add [bx+si],al
00000C7F  0000              add [bx+si],al
00000C81  0000              add [bx+si],al
00000C83  0000              add [bx+si],al
00000C85  0000              add [bx+si],al
00000C87  0000              add [bx+si],al
00000C89  0000              add [bx+si],al
00000C8B  0000              add [bx+si],al
00000C8D  0000              add [bx+si],al
00000C8F  0000              add [bx+si],al
00000C91  0000              add [bx+si],al
00000C93  0000              add [bx+si],al
00000C95  0000              add [bx+si],al
00000C97  0000              add [bx+si],al
00000C99  0000              add [bx+si],al
00000C9B  0000              add [bx+si],al
00000C9D  0000              add [bx+si],al
00000C9F  0000              add [bx+si],al
00000CA1  0000              add [bx+si],al
00000CA3  0000              add [bx+si],al
00000CA5  0000              add [bx+si],al
00000CA7  0000              add [bx+si],al
00000CA9  0000              add [bx+si],al
00000CAB  0000              add [bx+si],al
00000CAD  0000              add [bx+si],al
00000CAF  0000              add [bx+si],al
00000CB1  0000              add [bx+si],al
00000CB3  0000              add [bx+si],al
00000CB5  0000              add [bx+si],al
00000CB7  0000              add [bx+si],al
00000CB9  0000              add [bx+si],al
00000CBB  0000              add [bx+si],al
00000CBD  0000              add [bx+si],al
00000CBF  0000              add [bx+si],al
00000CC1  0000              add [bx+si],al
00000CC3  0000              add [bx+si],al
00000CC5  0000              add [bx+si],al
00000CC7  0000              add [bx+si],al
00000CC9  0000              add [bx+si],al
00000CCB  0000              add [bx+si],al
00000CCD  0000              add [bx+si],al
00000CCF  0000              add [bx+si],al
00000CD1  0000              add [bx+si],al
00000CD3  0000              add [bx+si],al
00000CD5  0000              add [bx+si],al
00000CD7  0000              add [bx+si],al
00000CD9  0000              add [bx+si],al
00000CDB  0000              add [bx+si],al
00000CDD  0000              add [bx+si],al
00000CDF  0000              add [bx+si],al
00000CE1  0000              add [bx+si],al
00000CE3  0000              add [bx+si],al
00000CE5  0000              add [bx+si],al
00000CE7  0000              add [bx+si],al
00000CE9  0000              add [bx+si],al
00000CEB  0000              add [bx+si],al
00000CED  0000              add [bx+si],al
00000CEF  0000              add [bx+si],al
00000CF1  0000              add [bx+si],al
00000CF3  0000              add [bx+si],al
00000CF5  0000              add [bx+si],al
00000CF7  0000              add [bx+si],al
00000CF9  0000              add [bx+si],al
00000CFB  0000              add [bx+si],al
00000CFD  0000              add [bx+si],al
00000CFF  0000              add [bx+si],al
00000D01  0000              add [bx+si],al
00000D03  0000              add [bx+si],al
00000D05  0000              add [bx+si],al
00000D07  0000              add [bx+si],al
00000D09  0000              add [bx+si],al
00000D0B  0000              add [bx+si],al
00000D0D  0000              add [bx+si],al
00000D0F  0000              add [bx+si],al
00000D11  0000              add [bx+si],al
00000D13  0000              add [bx+si],al
00000D15  0000              add [bx+si],al
00000D17  0000              add [bx+si],al
00000D19  0000              add [bx+si],al
00000D1B  0000              add [bx+si],al
00000D1D  0000              add [bx+si],al
00000D1F  0000              add [bx+si],al
00000D21  0000              add [bx+si],al
00000D23  0000              add [bx+si],al
00000D25  0000              add [bx+si],al
00000D27  0000              add [bx+si],al
00000D29  0000              add [bx+si],al
00000D2B  0000              add [bx+si],al
00000D2D  0000              add [bx+si],al
00000D2F  0000              add [bx+si],al
00000D31  0000              add [bx+si],al
00000D33  0000              add [bx+si],al
00000D35  0000              add [bx+si],al
00000D37  0000              add [bx+si],al
00000D39  0000              add [bx+si],al
00000D3B  0000              add [bx+si],al
00000D3D  0000              add [bx+si],al
00000D3F  0000              add [bx+si],al
00000D41  0000              add [bx+si],al
00000D43  0000              add [bx+si],al
00000D45  0000              add [bx+si],al
00000D47  0000              add [bx+si],al
00000D49  0000              add [bx+si],al
00000D4B  0000              add [bx+si],al
00000D4D  0000              add [bx+si],al
00000D4F  0000              add [bx+si],al
00000D51  0000              add [bx+si],al
00000D53  0000              add [bx+si],al
00000D55  0000              add [bx+si],al
00000D57  0000              add [bx+si],al
00000D59  0000              add [bx+si],al
00000D5B  0000              add [bx+si],al
00000D5D  0000              add [bx+si],al
00000D5F  0000              add [bx+si],al
00000D61  0000              add [bx+si],al
00000D63  0000              add [bx+si],al
00000D65  0000              add [bx+si],al
00000D67  0000              add [bx+si],al
00000D69  0000              add [bx+si],al
00000D6B  0000              add [bx+si],al
00000D6D  0000              add [bx+si],al
00000D6F  0000              add [bx+si],al
00000D71  0000              add [bx+si],al
00000D73  0000              add [bx+si],al
00000D75  0000              add [bx+si],al
00000D77  0000              add [bx+si],al
00000D79  0000              add [bx+si],al
00000D7B  0000              add [bx+si],al
00000D7D  0000              add [bx+si],al
00000D7F  0000              add [bx+si],al
00000D81  0000              add [bx+si],al
00000D83  0000              add [bx+si],al
00000D85  0000              add [bx+si],al
00000D87  0000              add [bx+si],al
00000D89  0000              add [bx+si],al
00000D8B  0000              add [bx+si],al
00000D8D  0000              add [bx+si],al
00000D8F  0000              add [bx+si],al
00000D91  0000              add [bx+si],al
00000D93  0000              add [bx+si],al
00000D95  0000              add [bx+si],al
00000D97  0000              add [bx+si],al
00000D99  0000              add [bx+si],al
00000D9B  0000              add [bx+si],al
00000D9D  0000              add [bx+si],al
00000D9F  0000              add [bx+si],al
00000DA1  0000              add [bx+si],al
00000DA3  0000              add [bx+si],al
00000DA5  0000              add [bx+si],al
00000DA7  0000              add [bx+si],al
00000DA9  0000              add [bx+si],al
00000DAB  0000              add [bx+si],al
00000DAD  0000              add [bx+si],al
00000DAF  0000              add [bx+si],al
00000DB1  0000              add [bx+si],al
00000DB3  0000              add [bx+si],al
00000DB5  0000              add [bx+si],al
00000DB7  0000              add [bx+si],al
00000DB9  0000              add [bx+si],al
00000DBB  0000              add [bx+si],al
00000DBD  0000              add [bx+si],al
00000DBF  0000              add [bx+si],al
00000DC1  0000              add [bx+si],al
00000DC3  0000              add [bx+si],al
00000DC5  0000              add [bx+si],al
00000DC7  0000              add [bx+si],al
00000DC9  0000              add [bx+si],al
00000DCB  0000              add [bx+si],al
00000DCD  0000              add [bx+si],al
00000DCF  0000              add [bx+si],al
00000DD1  0000              add [bx+si],al
00000DD3  0000              add [bx+si],al
00000DD5  0000              add [bx+si],al
00000DD7  0000              add [bx+si],al
00000DD9  0000              add [bx+si],al
00000DDB  0000              add [bx+si],al
00000DDD  0000              add [bx+si],al
00000DDF  0000              add [bx+si],al
00000DE1  0000              add [bx+si],al
00000DE3  0000              add [bx+si],al
00000DE5  0000              add [bx+si],al
00000DE7  0000              add [bx+si],al
00000DE9  0000              add [bx+si],al
00000DEB  0000              add [bx+si],al
00000DED  0000              add [bx+si],al
00000DEF  0000              add [bx+si],al
00000DF1  0000              add [bx+si],al
00000DF3  0000              add [bx+si],al
00000DF5  0000              add [bx+si],al
00000DF7  0000              add [bx+si],al
00000DF9  0000              add [bx+si],al
00000DFB  0000              add [bx+si],al
00000DFD  0000              add [bx+si],al
00000DFF  0000              add [bx+si],al
00000E01  0000              add [bx+si],al
00000E03  0000              add [bx+si],al
00000E05  0000              add [bx+si],al
00000E07  0000              add [bx+si],al
00000E09  0000              add [bx+si],al
00000E0B  0000              add [bx+si],al
00000E0D  0000              add [bx+si],al
00000E0F  0000              add [bx+si],al
00000E11  0000              add [bx+si],al
00000E13  0000              add [bx+si],al
00000E15  0000              add [bx+si],al
00000E17  0000              add [bx+si],al
00000E19  0000              add [bx+si],al
00000E1B  0000              add [bx+si],al
00000E1D  0000              add [bx+si],al
00000E1F  0000              add [bx+si],al
00000E21  0000              add [bx+si],al
00000E23  0000              add [bx+si],al
00000E25  0000              add [bx+si],al
00000E27  00FF              add bh,bh
00000E29  FF                db 0xff
00000E2A  FF                db 0xff
00000E2B  FF                db 0xff
00000E2C  FF                db 0xff
00000E2D  FF                db 0xff
00000E2E  FF                db 0xff
00000E2F  FF00              inc word [bx+si]
00000E31  0000              add [bx+si],al
00000E33  0000              add [bx+si],al
00000E35  0000              add [bx+si],al
00000E37  00FF              add bh,bh
00000E39  FF                db 0xff
00000E3A  FF                db 0xff
00000E3B  FF                db 0xff
00000E3C  FF                db 0xff
00000E3D  FF                db 0xff
00000E3E  FF                db 0xff
00000E3F  FF00              inc word [bx+si]
00000E41  0000              add [bx+si],al
00000E43  0000              add [bx+si],al
00000E45  0000              add [bx+si],al
00000E47  0000              add [bx+si],al
00000E49  0000              add [bx+si],al
00000E4B  0000              add [bx+si],al
00000E4D  0000              add [bx+si],al
00000E4F  0001              add [bx+di],al
00000E51  0000              add [bx+si],al
00000E53  0000              add [bx+si],al
00000E55  0000              add [bx+si],al
00000E57  0010              add [bx+si],dl
00000E59  0000              add [bx+si],al
00000E5B  0000              add [bx+si],al
00000E5D  0000              add [bx+si],al
00000E5F  000C              add [si],cl
00000E61  0000              add [bx+si],al
00000E63  0000              add [bx+si],al
00000E65  0000              add [bx+si],al
00000E67  00C8              add al,cl
00000E69  034000            add ax,[bx+si+0x0]
00000E6C  0000              add [bx+si],al
00000E6E  0000              add [bx+si],al
00000E70  0D0000            or ax,0x0
00000E73  0000              add [bx+si],al
00000E75  0000              add [bx+si],al
00000E77  00E8              add al,ch
00000E79  054000            add ax,0x40
00000E7C  0000              add [bx+si],al
00000E7E  0000              add [bx+si],al
00000E80  F5                cmc
00000E81  FE                db 0xfe
00000E82  FF6F00            jmp word far [bx+0x0]
00000E85  0000              add [bx+si],al
00000E87  00980240          add [bx+si+0x4002],bl
00000E8B  0000              add [bx+si],al
00000E8D  0000              add [bx+si],al
00000E8F  0005              add [di],al
00000E91  0000              add [bx+si],al
00000E93  0000              add [bx+si],al
00000E95  0000              add [bx+si],al
00000E97  0018              add [bx+si],bl
00000E99  034000            add ax,[bx+si+0x0]
00000E9C  0000              add [bx+si],al
00000E9E  0000              add [bx+si],al
00000EA0  06                push es
00000EA1  0000              add [bx+si],al
00000EA3  0000              add [bx+si],al
00000EA5  0000              add [bx+si],al
00000EA7  00B80240          add [bx+si+0x4002],bh
00000EAB  0000              add [bx+si],al
00000EAD  0000              add [bx+si],al
00000EAF  000A              add [bp+si],cl
00000EB1  0000              add [bx+si],al
00000EB3  0000              add [bx+si],al
00000EB5  0000              add [bx+si],al
00000EB7  003D              add [di],bh
00000EB9  0000              add [bx+si],al
00000EBB  0000              add [bx+si],al
00000EBD  0000              add [bx+si],al
00000EBF  000B              add [bp+di],cl
00000EC1  0000              add [bx+si],al
00000EC3  0000              add [bx+si],al
00000EC5  0000              add [bx+si],al
00000EC7  0018              add [bx+si],bl
00000EC9  0000              add [bx+si],al
00000ECB  0000              add [bx+si],al
00000ECD  0000              add [bx+si],al
00000ECF  0015              add [di],dl
00000ED1  0000              add [bx+si],al
00000ED3  0000              add [bx+si],al
00000ED5  0000              add [bx+si],al
00000ED7  0000              add [bx+si],al
00000ED9  0000              add [bx+si],al
00000EDB  0000              add [bx+si],al
00000EDD  0000              add [bx+si],al
00000EDF  0003              add [bp+di],al
00000EE1  0000              add [bx+si],al
00000EE3  0000              add [bx+si],al
00000EE5  0000              add [bx+si],al
00000EE7  00E8              add al,ch
00000EE9  0F6000            punpcklbw mm0,[bx+si]
00000EEC  0000              add [bx+si],al
00000EEE  0000              add [bx+si],al
00000EF0  0200              add al,[bx+si]
00000EF2  0000              add [bx+si],al
00000EF4  0000              add [bx+si],al
00000EF6  0000              add [bx+si],al
00000EF8  3000              xor [bx+si],al
00000EFA  0000              add [bx+si],al
00000EFC  0000              add [bx+si],al
00000EFE  0000              add [bx+si],al
00000F00  1400              adc al,0x0
00000F02  0000              add [bx+si],al
00000F04  0000              add [bx+si],al
00000F06  0000              add [bx+si],al
00000F08  07                pop es
00000F09  0000              add [bx+si],al
00000F0B  0000              add [bx+si],al
00000F0D  0000              add [bx+si],al
00000F0F  0017              add [bx],dl
00000F11  0000              add [bx+si],al
00000F13  0000              add [bx+si],al
00000F15  0000              add [bx+si],al
00000F17  00980340          add [bx+si+0x4003],bl
00000F1B  0000              add [bx+si],al
00000F1D  0000              add [bx+si],al
00000F1F  0007              add [bx],al
00000F21  0000              add [bx+si],al
00000F23  0000              add [bx+si],al
00000F25  0000              add [bx+si],al
00000F27  00800340          add [bx+si+0x4003],al
00000F2B  0000              add [bx+si],al
00000F2D  0000              add [bx+si],al
00000F2F  0008              add [bx+si],cl
00000F31  0000              add [bx+si],al
00000F33  0000              add [bx+si],al
00000F35  0000              add [bx+si],al
00000F37  0018              add [bx+si],bl
00000F39  0000              add [bx+si],al
00000F3B  0000              add [bx+si],al
00000F3D  0000              add [bx+si],al
00000F3F  0009              add [bx+di],cl
00000F41  0000              add [bx+si],al
00000F43  0000              add [bx+si],al
00000F45  0000              add [bx+si],al
00000F47  0018              add [bx+si],bl
00000F49  0000              add [bx+si],al
00000F4B  0000              add [bx+si],al
00000F4D  0000              add [bx+si],al
00000F4F  00FE              add dh,bh
00000F51  FF                db 0xff
00000F52  FF6F00            jmp word far [bx+0x0]
00000F55  0000              add [bx+si],al
00000F57  006003            add [bx+si+0x3],ah
00000F5A  40                inc ax
00000F5B  0000              add [bx+si],al
00000F5D  0000              add [bx+si],al
00000F5F  00FF              add bh,bh
00000F61  FF                db 0xff
00000F62  FF6F00            jmp word far [bx+0x0]
00000F65  0000              add [bx+si],al
00000F67  0001              add [bx+di],al
00000F69  0000              add [bx+si],al
00000F6B  0000              add [bx+si],al
00000F6D  0000              add [bx+si],al
00000F6F  00F0              add al,dh
00000F71  FF                db 0xff
00000F72  FF6F00            jmp word far [bx+0x0]
00000F75  0000              add [bx+si],al
00000F77  005603            add [bp+0x3],dl
00000F7A  40                inc ax
00000F7B  0000              add [bx+si],al
00000F7D  0000              add [bx+si],al
00000F7F  0000              add [bx+si],al
00000F81  0000              add [bx+si],al
00000F83  0000              add [bx+si],al
00000F85  0000              add [bx+si],al
00000F87  0000              add [bx+si],al
00000F89  0000              add [bx+si],al
00000F8B  0000              add [bx+si],al
00000F8D  0000              add [bx+si],al
00000F8F  0000              add [bx+si],al
00000F91  0000              add [bx+si],al
00000F93  0000              add [bx+si],al
00000F95  0000              add [bx+si],al
00000F97  0000              add [bx+si],al
00000F99  0000              add [bx+si],al
00000F9B  0000              add [bx+si],al
00000F9D  0000              add [bx+si],al
00000F9F  0000              add [bx+si],al
00000FA1  0000              add [bx+si],al
00000FA3  0000              add [bx+si],al
00000FA5  0000              add [bx+si],al
00000FA7  0000              add [bx+si],al
00000FA9  0000              add [bx+si],al
00000FAB  0000              add [bx+si],al
00000FAD  0000              add [bx+si],al
00000FAF  0000              add [bx+si],al
00000FB1  0000              add [bx+si],al
00000FB3  0000              add [bx+si],al
00000FB5  0000              add [bx+si],al
00000FB7  0000              add [bx+si],al
00000FB9  0000              add [bx+si],al
00000FBB  0000              add [bx+si],al
00000FBD  0000              add [bx+si],al
00000FBF  0000              add [bx+si],al
00000FC1  0000              add [bx+si],al
00000FC3  0000              add [bx+si],al
00000FC5  0000              add [bx+si],al
00000FC7  0000              add [bx+si],al
00000FC9  0000              add [bx+si],al
00000FCB  0000              add [bx+si],al
00000FCD  0000              add [bx+si],al
00000FCF  0000              add [bx+si],al
00000FD1  0000              add [bx+si],al
00000FD3  0000              add [bx+si],al
00000FD5  0000              add [bx+si],al
00000FD7  0000              add [bx+si],al
00000FD9  0000              add [bx+si],al
00000FDB  0000              add [bx+si],al
00000FDD  0000              add [bx+si],al
00000FDF  0000              add [bx+si],al
00000FE1  0000              add [bx+si],al
00000FE3  0000              add [bx+si],al
00000FE5  0000              add [bx+si],al
00000FE7  00500E            add [bx+si+0xe],dl
00000FEA  60                pushaw
00000FEB  0000              add [bx+si],al
00000FED  0000              add [bx+si],al
00000FEF  0000              add [bx+si],al
00000FF1  0000              add [bx+si],al
00000FF3  0000              add [bx+si],al
00000FF5  0000              add [bx+si],al
00000FF7  0000              add [bx+si],al
00000FF9  0000              add [bx+si],al
00000FFB  0000              add [bx+si],al
00000FFD  0000              add [bx+si],al
00000FFF  00F6              add dh,dh
00001001  034000            add ax,[bx+si+0x0]
00001004  0000              add [bx+si],al
00001006  0000              add [bx+si],al
00001008  06                push es
00001009  0440              add al,0x40
0000100B  0000              add [bx+si],al
0000100D  0000              add [bx+si],al
0000100F  0000              add [bx+si],al
00001011  0000              add [bx+si],al
00001013  0000              add [bx+si],al
00001015  0000              add [bx+si],al
00001017  0000              add [bx+si],al
00001019  0000              add [bx+si],al
0000101B  0000              add [bx+si],al
0000101D  0000              add [bx+si],al
0000101F  004743            add [bx+0x43],al
00001022  43                inc bx
00001023  3A20              cmp ah,[bx+si]
00001025  285562            sub [di+0x62],dl
00001028  756E              jnz 0x1098
0000102A  7475              jz 0x10a1
0000102C  2F                das
0000102D  4C                dec sp
0000102E  696E61726F        imul bp,[bp+0x61],word 0x6f72
00001033  2034              and [si],dh
00001035  2E362E332D        xor bp,[cs:di]
0000103A  317562            xor [di+0x62],si
0000103D  756E              jnz 0x10ad
0000103F  7475              jz 0x10b6
00001041  352920            xor ax,0x2029
00001044  342E              xor al,0x2e
00001046  362E3300          xor ax,[cs:bx+si]
0000104A  002E7379          add [0x7973],ch
0000104E  6D                insw
0000104F  7461              jz 0x10b2
00001051  6200              bound ax,[bx+si]
00001053  2E7374            cs jnc 0x10ca
00001056  7274              jc 0x10cc
00001058  61                popaw
00001059  6200              bound ax,[bx+si]
0000105B  2E7368            cs jnc 0x10c6
0000105E  7374              jnc 0x10d4
00001060  7274              jc 0x10d6
00001062  61                popaw
00001063  6200              bound ax,[bx+si]
00001065  2E696E746572      imul bp,[cs:bp+0x74],word 0x7265
0000106B  7000              jo 0x106d
0000106D  2E6E              cs outsb
0000106F  6F                outsw
00001070  7465              jz 0x10d7
00001072  2E41              cs inc cx
00001074  42                inc dx
00001075  49                dec cx
00001076  2D7461            sub ax,0x6174
00001079  67002E            add [esi],ch
0000107C  6E                outsb
0000107D  6F                outsw
0000107E  7465              jz 0x10e5
00001080  2E676E            cs a32 outsb
00001083  752E              jnz 0x10b3
00001085  627569            bound si,[di+0x69]
00001088  6C                insb
00001089  642D6964          fs sub ax,0x6469
0000108D  002E676E          add [0x6e67],ch
00001091  752E              jnz 0x10c1
00001093  686173            push word 0x7361
00001096  68002E            push word 0x2e00
00001099  64796E            fs jns 0x110a
0000109C  7379              jnc 0x1117
0000109E  6D                insw
0000109F  002E6479          add [0x7964],ch
000010A3  6E                outsb
000010A4  7374              jnc 0x111a
000010A6  7200              jc 0x10a8
000010A8  2E676E            cs a32 outsb
000010AB  752E              jnz 0x10db
000010AD  7665              jna 0x1114
000010AF  7273              jc 0x1124
000010B1  696F6E002E        imul bp,[bx+0x6e],word 0x2e00
000010B6  676E              a32 outsb
000010B8  752E              jnz 0x10e8
000010BA  7665              jna 0x1121
000010BC  7273              jc 0x1131
000010BE  696F6E5F72        imul bp,[bx+0x6e],word 0x725f
000010C3  002E7265          add [0x6572],ch
000010C7  6C                insb
000010C8  61                popaw
000010C9  2E64796E          fs jns 0x113b
000010CD  002E7265          add [0x6572],ch
000010D1  6C                insb
000010D2  61                popaw
000010D3  2E706C            cs jo 0x1142
000010D6  7400              jz 0x10d8
000010D8  2E696E697400      imul bp,[cs:bp+0x69],word 0x74
000010DE  2E7465            cs jz 0x1146
000010E1  7874              js 0x1157
000010E3  002E6669          add [0x6966],ch
000010E7  6E                outsb
000010E8  69002E72          imul ax,[bx+si],word 0x722e
000010EC  6F                outsw
000010ED  6461              fs popaw
000010EF  7461              jz 0x1152
000010F1  002E6568          add [0x6865],ch
000010F5  5F                pop di
000010F6  667261            o32 jc 0x115a
000010F9  6D                insw
000010FA  655F              gs pop di
000010FC  686472            push word 0x7264
000010FF  002E6568          add [0x6865],ch
00001103  5F                pop di
00001104  667261            o32 jc 0x1168
00001107  6D                insw
00001108  65002E6374        add [gs:0x7463],ch
0000110D  6F                outsw
0000110E  7273              jc 0x1183
00001110  002E6474          add [0x7464],ch
00001114  6F                outsw
00001115  7273              jc 0x118a
00001117  002E6A63          add [0x636a],ch
0000111B  7200              jc 0x111d
0000111D  2E64796E          fs jns 0x118f
00001121  61                popaw
00001122  6D                insw
00001123  6963002E67        imul sp,[bp+di+0x0],word 0x672e
00001128  6F                outsw
00001129  7400              jz 0x112b
0000112B  2E676F            cs a32 outsw
0000112E  742E              jz 0x115e
00001130  706C              jo 0x119e
00001132  7400              jz 0x1134
00001134  2E6461            fs popaw
00001137  7461              jz 0x119a
00001139  002E6273          add [0x7362],ch
0000113D  7300              jnc 0x113f
0000113F  2E636F6D          arpl [cs:bx+0x6d],bp
00001143  6D                insw
00001144  656E              gs outsb
00001146  7400              jz 0x1148
00001148  0000              add [bx+si],al
0000114A  0000              add [bx+si],al
0000114C  0000              add [bx+si],al
0000114E  0000              add [bx+si],al
00001150  0000              add [bx+si],al
00001152  0000              add [bx+si],al
00001154  0000              add [bx+si],al
00001156  0000              add [bx+si],al
00001158  0000              add [bx+si],al
0000115A  0000              add [bx+si],al
0000115C  0000              add [bx+si],al
0000115E  0000              add [bx+si],al
00001160  0000              add [bx+si],al
00001162  0000              add [bx+si],al
00001164  0000              add [bx+si],al
00001166  0000              add [bx+si],al
00001168  0000              add [bx+si],al
0000116A  0000              add [bx+si],al
0000116C  0000              add [bx+si],al
0000116E  0000              add [bx+si],al
00001170  0000              add [bx+si],al
00001172  0000              add [bx+si],al
00001174  0000              add [bx+si],al
00001176  0000              add [bx+si],al
00001178  0000              add [bx+si],al
0000117A  0000              add [bx+si],al
0000117C  0000              add [bx+si],al
0000117E  0000              add [bx+si],al
00001180  0000              add [bx+si],al
00001182  0000              add [bx+si],al
00001184  0000              add [bx+si],al
00001186  0000              add [bx+si],al
00001188  1B00              sbb ax,[bx+si]
0000118A  0000              add [bx+si],al
0000118C  0100              add [bx+si],ax
0000118E  0000              add [bx+si],al
00001190  0200              add al,[bx+si]
00001192  0000              add [bx+si],al
00001194  0000              add [bx+si],al
00001196  0000              add [bx+si],al
00001198  3802              cmp [bp+si],al
0000119A  40                inc ax
0000119B  0000              add [bx+si],al
0000119D  0000              add [bx+si],al
0000119F  0038              add [bx+si],bh
000011A1  0200              add al,[bx+si]
000011A3  0000              add [bx+si],al
000011A5  0000              add [bx+si],al
000011A7  001C              add [si],bl
000011A9  0000              add [bx+si],al
000011AB  0000              add [bx+si],al
000011AD  0000              add [bx+si],al
000011AF  0000              add [bx+si],al
000011B1  0000              add [bx+si],al
000011B3  0000              add [bx+si],al
000011B5  0000              add [bx+si],al
000011B7  0001              add [bx+di],al
000011B9  0000              add [bx+si],al
000011BB  0000              add [bx+si],al
000011BD  0000              add [bx+si],al
000011BF  0000              add [bx+si],al
000011C1  0000              add [bx+si],al
000011C3  0000              add [bx+si],al
000011C5  0000              add [bx+si],al
000011C7  0023              add [bp+di],ah
000011C9  0000              add [bx+si],al
000011CB  0007              add [bx],al
000011CD  0000              add [bx+si],al
000011CF  0002              add [bp+si],al
000011D1  0000              add [bx+si],al
000011D3  0000              add [bx+si],al
000011D5  0000              add [bx+si],al
000011D7  005402            add [si+0x2],dl
000011DA  40                inc ax
000011DB  0000              add [bx+si],al
000011DD  0000              add [bx+si],al
000011DF  005402            add [si+0x2],dl
000011E2  0000              add [bx+si],al
000011E4  0000              add [bx+si],al
000011E6  0000              add [bx+si],al
000011E8  2000              and [bx+si],al
000011EA  0000              add [bx+si],al
000011EC  0000              add [bx+si],al
000011EE  0000              add [bx+si],al
000011F0  0000              add [bx+si],al
000011F2  0000              add [bx+si],al
000011F4  0000              add [bx+si],al
000011F6  0000              add [bx+si],al
000011F8  0400              add al,0x0
000011FA  0000              add [bx+si],al
000011FC  0000              add [bx+si],al
000011FE  0000              add [bx+si],al
00001200  0000              add [bx+si],al
00001202  0000              add [bx+si],al
00001204  0000              add [bx+si],al
00001206  0000              add [bx+si],al
00001208  3100              xor [bx+si],ax
0000120A  0000              add [bx+si],al
0000120C  07                pop es
0000120D  0000              add [bx+si],al
0000120F  0002              add [bp+si],al
00001211  0000              add [bx+si],al
00001213  0000              add [bx+si],al
00001215  0000              add [bx+si],al
00001217  007402            add [si+0x2],dh
0000121A  40                inc ax
0000121B  0000              add [bx+si],al
0000121D  0000              add [bx+si],al
0000121F  007402            add [si+0x2],dh
00001222  0000              add [bx+si],al
00001224  0000              add [bx+si],al
00001226  0000              add [bx+si],al
00001228  2400              and al,0x0
0000122A  0000              add [bx+si],al
0000122C  0000              add [bx+si],al
0000122E  0000              add [bx+si],al
00001230  0000              add [bx+si],al
00001232  0000              add [bx+si],al
00001234  0000              add [bx+si],al
00001236  0000              add [bx+si],al
00001238  0400              add al,0x0
0000123A  0000              add [bx+si],al
0000123C  0000              add [bx+si],al
0000123E  0000              add [bx+si],al
00001240  0000              add [bx+si],al
00001242  0000              add [bx+si],al
00001244  0000              add [bx+si],al
00001246  0000              add [bx+si],al
00001248  44                inc sp
00001249  0000              add [bx+si],al
0000124B  00F6              add dh,dh
0000124D  FF                db 0xff
0000124E  FF6F02            jmp word far [bx+0x2]
00001251  0000              add [bx+si],al
00001253  0000              add [bx+si],al
00001255  0000              add [bx+si],al
00001257  00980240          add [bx+si+0x4002],bl
0000125B  0000              add [bx+si],al
0000125D  0000              add [bx+si],al
0000125F  00980200          add [bx+si+0x2],bl
00001263  0000              add [bx+si],al
00001265  0000              add [bx+si],al
00001267  001C              add [si],bl
00001269  0000              add [bx+si],al
0000126B  0000              add [bx+si],al
0000126D  0000              add [bx+si],al
0000126F  0005              add [di],al
00001271  0000              add [bx+si],al
00001273  0000              add [bx+si],al
00001275  0000              add [bx+si],al
00001277  0008              add [bx+si],cl
00001279  0000              add [bx+si],al
0000127B  0000              add [bx+si],al
0000127D  0000              add [bx+si],al
0000127F  0000              add [bx+si],al
00001281  0000              add [bx+si],al
00001283  0000              add [bx+si],al
00001285  0000              add [bx+si],al
00001287  004E00            add [bp+0x0],cl
0000128A  0000              add [bx+si],al
0000128C  0B00              or ax,[bx+si]
0000128E  0000              add [bx+si],al
00001290  0200              add al,[bx+si]
00001292  0000              add [bx+si],al
00001294  0000              add [bx+si],al
00001296  0000              add [bx+si],al
00001298  B80240            mov ax,0x4002
0000129B  0000              add [bx+si],al
0000129D  0000              add [bx+si],al
0000129F  00B80200          add [bx+si+0x2],bh
000012A3  0000              add [bx+si],al
000012A5  0000              add [bx+si],al
000012A7  006000            add [bx+si+0x0],ah
000012AA  0000              add [bx+si],al
000012AC  0000              add [bx+si],al
000012AE  0000              add [bx+si],al
000012B0  06                push es
000012B1  0000              add [bx+si],al
000012B3  0001              add [bx+di],al
000012B5  0000              add [bx+si],al
000012B7  0008              add [bx+si],cl
000012B9  0000              add [bx+si],al
000012BB  0000              add [bx+si],al
000012BD  0000              add [bx+si],al
000012BF  0018              add [bx+si],bl
000012C1  0000              add [bx+si],al
000012C3  0000              add [bx+si],al
000012C5  0000              add [bx+si],al
000012C7  005600            add [bp+0x0],dl
000012CA  0000              add [bx+si],al
000012CC  0300              add ax,[bx+si]
000012CE  0000              add [bx+si],al
000012D0  0200              add al,[bx+si]
000012D2  0000              add [bx+si],al
000012D4  0000              add [bx+si],al
000012D6  0000              add [bx+si],al
000012D8  1803              sbb [bp+di],al
000012DA  40                inc ax
000012DB  0000              add [bx+si],al
000012DD  0000              add [bx+si],al
000012DF  0018              add [bx+si],bl
000012E1  0300              add ax,[bx+si]
000012E3  0000              add [bx+si],al
000012E5  0000              add [bx+si],al
000012E7  003D              add [di],bh
000012E9  0000              add [bx+si],al
000012EB  0000              add [bx+si],al
000012ED  0000              add [bx+si],al
000012EF  0000              add [bx+si],al
000012F1  0000              add [bx+si],al
000012F3  0000              add [bx+si],al
000012F5  0000              add [bx+si],al
000012F7  0001              add [bx+di],al
000012F9  0000              add [bx+si],al
000012FB  0000              add [bx+si],al
000012FD  0000              add [bx+si],al
000012FF  0000              add [bx+si],al
00001301  0000              add [bx+si],al
00001303  0000              add [bx+si],al
00001305  0000              add [bx+si],al
00001307  005E00            add [bp+0x0],bl
0000130A  0000              add [bx+si],al
0000130C  FF                db 0xff
0000130D  FF                db 0xff
0000130E  FF6F02            jmp word far [bx+0x2]
00001311  0000              add [bx+si],al
00001313  0000              add [bx+si],al
00001315  0000              add [bx+si],al
00001317  005603            add [bp+0x3],dl
0000131A  40                inc ax
0000131B  0000              add [bx+si],al
0000131D  0000              add [bx+si],al
0000131F  005603            add [bp+0x3],dl
00001322  0000              add [bx+si],al
00001324  0000              add [bx+si],al
00001326  0000              add [bx+si],al
00001328  0800              or [bx+si],al
0000132A  0000              add [bx+si],al
0000132C  0000              add [bx+si],al
0000132E  0000              add [bx+si],al
00001330  050000            add ax,0x0
00001333  0000              add [bx+si],al
00001335  0000              add [bx+si],al
00001337  0002              add [bp+si],al
00001339  0000              add [bx+si],al
0000133B  0000              add [bx+si],al
0000133D  0000              add [bx+si],al
0000133F  0002              add [bp+si],al
00001341  0000              add [bx+si],al
00001343  0000              add [bx+si],al
00001345  0000              add [bx+si],al
00001347  006B00            add [bp+di+0x0],ch
0000134A  0000              add [bx+si],al
0000134C  FE                db 0xfe
0000134D  FF                db 0xff
0000134E  FF6F02            jmp word far [bx+0x2]
00001351  0000              add [bx+si],al
00001353  0000              add [bx+si],al
00001355  0000              add [bx+si],al
00001357  006003            add [bx+si+0x3],ah
0000135A  40                inc ax
0000135B  0000              add [bx+si],al
0000135D  0000              add [bx+si],al
0000135F  006003            add [bx+si+0x3],ah
00001362  0000              add [bx+si],al
00001364  0000              add [bx+si],al
00001366  0000              add [bx+si],al
00001368  2000              and [bx+si],al
0000136A  0000              add [bx+si],al
0000136C  0000              add [bx+si],al
0000136E  0000              add [bx+si],al
00001370  06                push es
00001371  0000              add [bx+si],al
00001373  0001              add [bx+di],al
00001375  0000              add [bx+si],al
00001377  0008              add [bx+si],cl
00001379  0000              add [bx+si],al
0000137B  0000              add [bx+si],al
0000137D  0000              add [bx+si],al
0000137F  0000              add [bx+si],al
00001381  0000              add [bx+si],al
00001383  0000              add [bx+si],al
00001385  0000              add [bx+si],al
00001387  007A00            add [bp+si+0x0],bh
0000138A  0000              add [bx+si],al
0000138C  0400              add al,0x0
0000138E  0000              add [bx+si],al
00001390  0200              add al,[bx+si]
00001392  0000              add [bx+si],al
00001394  0000              add [bx+si],al
00001396  0000              add [bx+si],al
00001398  800340            add byte [bp+di],0x40
0000139B  0000              add [bx+si],al
0000139D  0000              add [bx+si],al
0000139F  00800300          add [bx+si+0x3],al
000013A3  0000              add [bx+si],al
000013A5  0000              add [bx+si],al
000013A7  0018              add [bx+si],bl
000013A9  0000              add [bx+si],al
000013AB  0000              add [bx+si],al
000013AD  0000              add [bx+si],al
000013AF  0005              add [di],al
000013B1  0000              add [bx+si],al
000013B3  0000              add [bx+si],al
000013B5  0000              add [bx+si],al
000013B7  0008              add [bx+si],cl
000013B9  0000              add [bx+si],al
000013BB  0000              add [bx+si],al
000013BD  0000              add [bx+si],al
000013BF  0018              add [bx+si],bl
000013C1  0000              add [bx+si],al
000013C3  0000              add [bx+si],al
000013C5  0000              add [bx+si],al
000013C7  00840000          add [si+0x0],al
000013CB  0004              add [si],al
000013CD  0000              add [bx+si],al
000013CF  0002              add [bp+si],al
000013D1  0000              add [bx+si],al
000013D3  0000              add [bx+si],al
000013D5  0000              add [bx+si],al
000013D7  00980340          add [bx+si+0x4003],bl
000013DB  0000              add [bx+si],al
000013DD  0000              add [bx+si],al
000013DF  00980300          add [bx+si+0x3],bl
000013E3  0000              add [bx+si],al
000013E5  0000              add [bx+si],al
000013E7  0030              add [bx+si],dh
000013E9  0000              add [bx+si],al
000013EB  0000              add [bx+si],al
000013ED  0000              add [bx+si],al
000013EF  0005              add [di],al
000013F1  0000              add [bx+si],al
000013F3  000C              add [si],cl
000013F5  0000              add [bx+si],al
000013F7  0008              add [bx+si],cl
000013F9  0000              add [bx+si],al
000013FB  0000              add [bx+si],al
000013FD  0000              add [bx+si],al
000013FF  0018              add [bx+si],bl
00001401  0000              add [bx+si],al
00001403  0000              add [bx+si],al
00001405  0000              add [bx+si],al
00001407  008E0000          add [bp+0x0],cl
0000140B  0001              add [bx+di],al
0000140D  0000              add [bx+si],al
0000140F  00060000          add [0x0],al
00001413  0000              add [bx+si],al
00001415  0000              add [bx+si],al
00001417  00C8              add al,cl
00001419  034000            add ax,[bx+si+0x0]
0000141C  0000              add [bx+si],al
0000141E  0000              add [bx+si],al
00001420  C8030000          enter 0x3,0x0
00001424  0000              add [bx+si],al
00001426  0000              add [bx+si],al
00001428  1800              sbb [bx+si],al
0000142A  0000              add [bx+si],al
0000142C  0000              add [bx+si],al
0000142E  0000              add [bx+si],al
00001430  0000              add [bx+si],al
00001432  0000              add [bx+si],al
00001434  0000              add [bx+si],al
00001436  0000              add [bx+si],al
00001438  0400              add al,0x0
0000143A  0000              add [bx+si],al
0000143C  0000              add [bx+si],al
0000143E  0000              add [bx+si],al
00001440  0000              add [bx+si],al
00001442  0000              add [bx+si],al
00001444  0000              add [bx+si],al
00001446  0000              add [bx+si],al
00001448  8900              mov [bx+si],ax
0000144A  0000              add [bx+si],al
0000144C  0100              add [bx+si],ax
0000144E  0000              add [bx+si],al
00001450  06                push es
00001451  0000              add [bx+si],al
00001453  0000              add [bx+si],al
00001455  0000              add [bx+si],al
00001457  00E0              add al,ah
00001459  034000            add ax,[bx+si+0x0]
0000145C  0000              add [bx+si],al
0000145E  0000              add [bx+si],al
00001460  E003              loopne 0x1465
00001462  0000              add [bx+si],al
00001464  0000              add [bx+si],al
00001466  0000              add [bx+si],al
00001468  3000              xor [bx+si],al
0000146A  0000              add [bx+si],al
0000146C  0000              add [bx+si],al
0000146E  0000              add [bx+si],al
00001470  0000              add [bx+si],al
00001472  0000              add [bx+si],al
00001474  0000              add [bx+si],al
00001476  0000              add [bx+si],al
00001478  1000              adc [bx+si],al
0000147A  0000              add [bx+si],al
0000147C  0000              add [bx+si],al
0000147E  0000              add [bx+si],al
00001480  1000              adc [bx+si],al
00001482  0000              add [bx+si],al
00001484  0000              add [bx+si],al
00001486  0000              add [bx+si],al
00001488  94                xchg ax,sp
00001489  0000              add [bx+si],al
0000148B  0001              add [bx+di],al
0000148D  0000              add [bx+si],al
0000148F  00060000          add [0x0],al
00001493  0000              add [bx+si],al
00001495  0000              add [bx+si],al
00001497  0010              add [bx+si],dl
00001499  0440              add al,0x40
0000149B  0000              add [bx+si],al
0000149D  0000              add [bx+si],al
0000149F  0010              add [bx+si],dl
000014A1  0400              add al,0x0
000014A3  0000              add [bx+si],al
000014A5  0000              add [bx+si],al
000014A7  00D8              add al,bl
000014A9  0100              add [bx+si],ax
000014AB  0000              add [bx+si],al
000014AD  0000              add [bx+si],al
000014AF  0000              add [bx+si],al
000014B1  0000              add [bx+si],al
000014B3  0000              add [bx+si],al
000014B5  0000              add [bx+si],al
000014B7  0010              add [bx+si],dl
000014B9  0000              add [bx+si],al
000014BB  0000              add [bx+si],al
000014BD  0000              add [bx+si],al
000014BF  0000              add [bx+si],al
000014C1  0000              add [bx+si],al
000014C3  0000              add [bx+si],al
000014C5  0000              add [bx+si],al
000014C7  009A0000          add [bp+si+0x0],bl
000014CB  0001              add [bx+di],al
000014CD  0000              add [bx+si],al
000014CF  00060000          add [0x0],al
000014D3  0000              add [bx+si],al
000014D5  0000              add [bx+si],al
000014D7  00E8              add al,ch
000014D9  054000            add ax,0x40
000014DC  0000              add [bx+si],al
000014DE  0000              add [bx+si],al
000014E0  E80500            call word 0x14e8
000014E3  0000              add [bx+si],al
000014E5  0000              add [bx+si],al
000014E7  000E0000          add [0x0],cl
000014EB  0000              add [bx+si],al
000014ED  0000              add [bx+si],al
000014EF  0000              add [bx+si],al
000014F1  0000              add [bx+si],al
000014F3  0000              add [bx+si],al
000014F5  0000              add [bx+si],al
000014F7  0004              add [si],al
000014F9  0000              add [bx+si],al
000014FB  0000              add [bx+si],al
000014FD  0000              add [bx+si],al
000014FF  0000              add [bx+si],al
00001501  0000              add [bx+si],al
00001503  0000              add [bx+si],al
00001505  0000              add [bx+si],al
00001507  00A00000          add [bx+si+0x0],ah
0000150B  0001              add [bx+di],al
0000150D  0000              add [bx+si],al
0000150F  0002              add [bp+si],al
00001511  0000              add [bx+si],al
00001513  0000              add [bx+si],al
00001515  0000              add [bx+si],al
00001517  00F8              add al,bh
00001519  054000            add ax,0x40
0000151C  0000              add [bx+si],al
0000151E  0000              add [bx+si],al
00001520  F8                clc
00001521  050000            add ax,0x0
00001524  0000              add [bx+si],al
00001526  0000              add [bx+si],al
00001528  1000              adc [bx+si],al
0000152A  0000              add [bx+si],al
0000152C  0000              add [bx+si],al
0000152E  0000              add [bx+si],al
00001530  0000              add [bx+si],al
00001532  0000              add [bx+si],al
00001534  0000              add [bx+si],al
00001536  0000              add [bx+si],al
00001538  0400              add al,0x0
0000153A  0000              add [bx+si],al
0000153C  0000              add [bx+si],al
0000153E  0000              add [bx+si],al
00001540  0000              add [bx+si],al
00001542  0000              add [bx+si],al
00001544  0000              add [bx+si],al
00001546  0000              add [bx+si],al
00001548  A800              test al,0x0
0000154A  0000              add [bx+si],al
0000154C  0100              add [bx+si],ax
0000154E  0000              add [bx+si],al
00001550  0200              add al,[bx+si]
00001552  0000              add [bx+si],al
00001554  0000              add [bx+si],al
00001556  0000              add [bx+si],al
00001558  08064000          or [0x40],al
0000155C  0000              add [bx+si],al
0000155E  0000              add [bx+si],al
00001560  08060000          or [0x0],al
00001564  0000              add [bx+si],al
00001566  0000              add [bx+si],al
00001568  2C00              sub al,0x0
0000156A  0000              add [bx+si],al
0000156C  0000              add [bx+si],al
0000156E  0000              add [bx+si],al
00001570  0000              add [bx+si],al
00001572  0000              add [bx+si],al
00001574  0000              add [bx+si],al
00001576  0000              add [bx+si],al
00001578  0400              add al,0x0
0000157A  0000              add [bx+si],al
0000157C  0000              add [bx+si],al
0000157E  0000              add [bx+si],al
00001580  0000              add [bx+si],al
00001582  0000              add [bx+si],al
00001584  0000              add [bx+si],al
00001586  0000              add [bx+si],al
00001588  B600              mov dh,0x0
0000158A  0000              add [bx+si],al
0000158C  0100              add [bx+si],ax
0000158E  0000              add [bx+si],al
00001590  0200              add al,[bx+si]
00001592  0000              add [bx+si],al
00001594  0000              add [bx+si],al
00001596  0000              add [bx+si],al
00001598  38064000          cmp [0x40],al
0000159C  0000              add [bx+si],al
0000159E  0000              add [bx+si],al
000015A0  38060000          cmp [0x0],al
000015A4  0000              add [bx+si],al
000015A6  0000              add [bx+si],al
000015A8  A4                movsb
000015A9  0000              add [bx+si],al
000015AB  0000              add [bx+si],al
000015AD  0000              add [bx+si],al
000015AF  0000              add [bx+si],al
000015B1  0000              add [bx+si],al
000015B3  0000              add [bx+si],al
000015B5  0000              add [bx+si],al
000015B7  0008              add [bx+si],cl
000015B9  0000              add [bx+si],al
000015BB  0000              add [bx+si],al
000015BD  0000              add [bx+si],al
000015BF  0000              add [bx+si],al
000015C1  0000              add [bx+si],al
000015C3  0000              add [bx+si],al
000015C5  0000              add [bx+si],al
000015C7  00C0              add al,al
000015C9  0000              add [bx+si],al
000015CB  0001              add [bx+di],al
000015CD  0000              add [bx+si],al
000015CF  0003              add [bp+di],al
000015D1  0000              add [bx+si],al
000015D3  0000              add [bx+si],al
000015D5  0000              add [bx+si],al
000015D7  0028              add [bx+si],ch
000015D9  0E                push cs
000015DA  60                pushaw
000015DB  0000              add [bx+si],al
000015DD  0000              add [bx+si],al
000015DF  0028              add [bx+si],ch
000015E1  0E                push cs
000015E2  0000              add [bx+si],al
000015E4  0000              add [bx+si],al
000015E6  0000              add [bx+si],al
000015E8  1000              adc [bx+si],al
000015EA  0000              add [bx+si],al
000015EC  0000              add [bx+si],al
000015EE  0000              add [bx+si],al
000015F0  0000              add [bx+si],al
000015F2  0000              add [bx+si],al
000015F4  0000              add [bx+si],al
000015F6  0000              add [bx+si],al
000015F8  0800              or [bx+si],al
000015FA  0000              add [bx+si],al
000015FC  0000              add [bx+si],al
000015FE  0000              add [bx+si],al
00001600  0000              add [bx+si],al
00001602  0000              add [bx+si],al
00001604  0000              add [bx+si],al
00001606  0000              add [bx+si],al
00001608  C7000000          mov word [bx+si],0x0
0000160C  0100              add [bx+si],ax
0000160E  0000              add [bx+si],al
00001610  0300              add ax,[bx+si]
00001612  0000              add [bx+si],al
00001614  0000              add [bx+si],al
00001616  0000              add [bx+si],al
00001618  380E6000          cmp [0x60],cl
0000161C  0000              add [bx+si],al
0000161E  0000              add [bx+si],al
00001620  380E0000          cmp [0x0],cl
00001624  0000              add [bx+si],al
00001626  0000              add [bx+si],al
00001628  1000              adc [bx+si],al
0000162A  0000              add [bx+si],al
0000162C  0000              add [bx+si],al
0000162E  0000              add [bx+si],al
00001630  0000              add [bx+si],al
00001632  0000              add [bx+si],al
00001634  0000              add [bx+si],al
00001636  0000              add [bx+si],al
00001638  0800              or [bx+si],al
0000163A  0000              add [bx+si],al
0000163C  0000              add [bx+si],al
0000163E  0000              add [bx+si],al
00001640  0000              add [bx+si],al
00001642  0000              add [bx+si],al
00001644  0000              add [bx+si],al
00001646  0000              add [bx+si],al
00001648  CE                into
00001649  0000              add [bx+si],al
0000164B  0001              add [bx+di],al
0000164D  0000              add [bx+si],al
0000164F  0003              add [bp+di],al
00001651  0000              add [bx+si],al
00001653  0000              add [bx+si],al
00001655  0000              add [bx+si],al
00001657  00480E            add [bx+si+0xe],cl
0000165A  60                pushaw
0000165B  0000              add [bx+si],al
0000165D  0000              add [bx+si],al
0000165F  00480E            add [bx+si+0xe],cl
00001662  0000              add [bx+si],al
00001664  0000              add [bx+si],al
00001666  0000              add [bx+si],al
00001668  0800              or [bx+si],al
0000166A  0000              add [bx+si],al
0000166C  0000              add [bx+si],al
0000166E  0000              add [bx+si],al
00001670  0000              add [bx+si],al
00001672  0000              add [bx+si],al
00001674  0000              add [bx+si],al
00001676  0000              add [bx+si],al
00001678  0800              or [bx+si],al
0000167A  0000              add [bx+si],al
0000167C  0000              add [bx+si],al
0000167E  0000              add [bx+si],al
00001680  0000              add [bx+si],al
00001682  0000              add [bx+si],al
00001684  0000              add [bx+si],al
00001686  0000              add [bx+si],al
00001688  D300              rol word [bx+si],cl
0000168A  0000              add [bx+si],al
0000168C  06                push es
0000168D  0000              add [bx+si],al
0000168F  0003              add [bp+di],al
00001691  0000              add [bx+si],al
00001693  0000              add [bx+si],al
00001695  0000              add [bx+si],al
00001697  00500E            add [bx+si+0xe],dl
0000169A  60                pushaw
0000169B  0000              add [bx+si],al
0000169D  0000              add [bx+si],al
0000169F  00500E            add [bx+si+0xe],dl
000016A2  0000              add [bx+si],al
000016A4  0000              add [bx+si],al
000016A6  0000              add [bx+si],al
000016A8  90                nop
000016A9  0100              add [bx+si],ax
000016AB  0000              add [bx+si],al
000016AD  0000              add [bx+si],al
000016AF  00060000          add [0x0],al
000016B3  0000              add [bx+si],al
000016B5  0000              add [bx+si],al
000016B7  0008              add [bx+si],cl
000016B9  0000              add [bx+si],al
000016BB  0000              add [bx+si],al
000016BD  0000              add [bx+si],al
000016BF  0010              add [bx+si],dl
000016C1  0000              add [bx+si],al
000016C3  0000              add [bx+si],al
000016C5  0000              add [bx+si],al
000016C7  00DC              add ah,bl
000016C9  0000              add [bx+si],al
000016CB  0001              add [bx+di],al
000016CD  0000              add [bx+si],al
000016CF  0003              add [bp+di],al
000016D1  0000              add [bx+si],al
000016D3  0000              add [bx+si],al
000016D5  0000              add [bx+si],al
000016D7  00E0              add al,ah
000016D9  0F6000            punpcklbw mm0,[bx+si]
000016DC  0000              add [bx+si],al
000016DE  0000              add [bx+si],al
000016E0  E00F              loopne 0x16f1
000016E2  0000              add [bx+si],al
000016E4  0000              add [bx+si],al
000016E6  0000              add [bx+si],al
000016E8  0800              or [bx+si],al
000016EA  0000              add [bx+si],al
000016EC  0000              add [bx+si],al
000016EE  0000              add [bx+si],al
000016F0  0000              add [bx+si],al
000016F2  0000              add [bx+si],al
000016F4  0000              add [bx+si],al
000016F6  0000              add [bx+si],al
000016F8  0800              or [bx+si],al
000016FA  0000              add [bx+si],al
000016FC  0000              add [bx+si],al
000016FE  0000              add [bx+si],al
00001700  0800              or [bx+si],al
00001702  0000              add [bx+si],al
00001704  0000              add [bx+si],al
00001706  0000              add [bx+si],al
00001708  E100              loope 0x170a
0000170A  0000              add [bx+si],al
0000170C  0100              add [bx+si],ax
0000170E  0000              add [bx+si],al
00001710  0300              add ax,[bx+si]
00001712  0000              add [bx+si],al
00001714  0000              add [bx+si],al
00001716  0000              add [bx+si],al
00001718  E80F60            call word 0x772a
0000171B  0000              add [bx+si],al
0000171D  0000              add [bx+si],al
0000171F  00E8              add al,ch
00001721  0F0000            sldt [bx+si]
00001724  0000              add [bx+si],al
00001726  0000              add [bx+si],al
00001728  2800              sub [bx+si],al
0000172A  0000              add [bx+si],al
0000172C  0000              add [bx+si],al
0000172E  0000              add [bx+si],al
00001730  0000              add [bx+si],al
00001732  0000              add [bx+si],al
00001734  0000              add [bx+si],al
00001736  0000              add [bx+si],al
00001738  0800              or [bx+si],al
0000173A  0000              add [bx+si],al
0000173C  0000              add [bx+si],al
0000173E  0000              add [bx+si],al
00001740  0800              or [bx+si],al
00001742  0000              add [bx+si],al
00001744  0000              add [bx+si],al
00001746  0000              add [bx+si],al
00001748  EA00000001        jmp word 0x100:0x0
0000174D  0000              add [bx+si],al
0000174F  0003              add [bp+di],al
00001751  0000              add [bx+si],al
00001753  0000              add [bx+si],al
00001755  0000              add [bx+si],al
00001757  0010              add [bx+si],dl
00001759  106000            adc [bx+si+0x0],ah
0000175C  0000              add [bx+si],al
0000175E  0000              add [bx+si],al
00001760  1010              adc [bx+si],dl
00001762  0000              add [bx+si],al
00001764  0000              add [bx+si],al
00001766  0000              add [bx+si],al
00001768  1000              adc [bx+si],al
0000176A  0000              add [bx+si],al
0000176C  0000              add [bx+si],al
0000176E  0000              add [bx+si],al
00001770  0000              add [bx+si],al
00001772  0000              add [bx+si],al
00001774  0000              add [bx+si],al
00001776  0000              add [bx+si],al
00001778  0800              or [bx+si],al
0000177A  0000              add [bx+si],al
0000177C  0000              add [bx+si],al
0000177E  0000              add [bx+si],al
00001780  0000              add [bx+si],al
00001782  0000              add [bx+si],al
00001784  0000              add [bx+si],al
00001786  0000              add [bx+si],al
00001788  F00000            lock add [bx+si],al
0000178B  0008              add [bx+si],cl
0000178D  0000              add [bx+si],al
0000178F  0003              add [bp+di],al
00001791  0000              add [bx+si],al
00001793  0000              add [bx+si],al
00001795  0000              add [bx+si],al
00001797  0020              add [bx+si],ah
00001799  106000            adc [bx+si+0x0],ah
0000179C  0000              add [bx+si],al
0000179E  0000              add [bx+si],al
000017A0  2010              and [bx+si],dl
000017A2  0000              add [bx+si],al
000017A4  0000              add [bx+si],al
000017A6  0000              add [bx+si],al
000017A8  1000              adc [bx+si],al
000017AA  0000              add [bx+si],al
000017AC  0000              add [bx+si],al
000017AE  0000              add [bx+si],al
000017B0  0000              add [bx+si],al
000017B2  0000              add [bx+si],al
000017B4  0000              add [bx+si],al
000017B6  0000              add [bx+si],al
000017B8  0800              or [bx+si],al
000017BA  0000              add [bx+si],al
000017BC  0000              add [bx+si],al
000017BE  0000              add [bx+si],al
000017C0  0000              add [bx+si],al
000017C2  0000              add [bx+si],al
000017C4  0000              add [bx+si],al
000017C6  0000              add [bx+si],al
000017C8  F5                cmc
000017C9  0000              add [bx+si],al
000017CB  0001              add [bx+di],al
000017CD  0000              add [bx+si],al
000017CF  0030              add [bx+si],dh
000017D1  0000              add [bx+si],al
000017D3  0000              add [bx+si],al
000017D5  0000              add [bx+si],al
000017D7  0000              add [bx+si],al
000017D9  0000              add [bx+si],al
000017DB  0000              add [bx+si],al
000017DD  0000              add [bx+si],al
000017DF  0020              add [bx+si],ah
000017E1  1000              adc [bx+si],al
000017E3  0000              add [bx+si],al
000017E5  0000              add [bx+si],al
000017E7  002A              add [bp+si],ch
000017E9  0000              add [bx+si],al
000017EB  0000              add [bx+si],al
000017ED  0000              add [bx+si],al
000017EF  0000              add [bx+si],al
000017F1  0000              add [bx+si],al
000017F3  0000              add [bx+si],al
000017F5  0000              add [bx+si],al
000017F7  0001              add [bx+di],al
000017F9  0000              add [bx+si],al
000017FB  0000              add [bx+si],al
000017FD  0000              add [bx+si],al
000017FF  0001              add [bx+di],al
00001801  0000              add [bx+si],al
00001803  0000              add [bx+si],al
00001805  0000              add [bx+si],al
00001807  0011              add [bx+di],dl
00001809  0000              add [bx+si],al
0000180B  0003              add [bp+di],al
0000180D  0000              add [bx+si],al
0000180F  0000              add [bx+si],al
00001811  0000              add [bx+si],al
00001813  0000              add [bx+si],al
00001815  0000              add [bx+si],al
00001817  0000              add [bx+si],al
00001819  0000              add [bx+si],al
0000181B  0000              add [bx+si],al
0000181D  0000              add [bx+si],al
0000181F  004A10            add [bp+si+0x10],cl
00001822  0000              add [bx+si],al
00001824  0000              add [bx+si],al
00001826  0000              add [bx+si],al
00001828  FE00              inc byte [bx+si]
0000182A  0000              add [bx+si],al
0000182C  0000              add [bx+si],al
0000182E  0000              add [bx+si],al
00001830  0000              add [bx+si],al
00001832  0000              add [bx+si],al
00001834  0000              add [bx+si],al
00001836  0000              add [bx+si],al
00001838  0100              add [bx+si],ax
0000183A  0000              add [bx+si],al
0000183C  0000              add [bx+si],al
0000183E  0000              add [bx+si],al
00001840  0000              add [bx+si],al
00001842  0000              add [bx+si],al
00001844  0000              add [bx+si],al
00001846  0000              add [bx+si],al
00001848  0100              add [bx+si],ax
0000184A  0000              add [bx+si],al
0000184C  0200              add al,[bx+si]
0000184E  0000              add [bx+si],al
00001850  0000              add [bx+si],al
00001852  0000              add [bx+si],al
00001854  0000              add [bx+si],al
00001856  0000              add [bx+si],al
00001858  0000              add [bx+si],al
0000185A  0000              add [bx+si],al
0000185C  0000              add [bx+si],al
0000185E  0000              add [bx+si],al
00001860  C8180000          enter 0x18,0x0
00001864  0000              add [bx+si],al
00001866  0000              add [bx+si],al
00001868  00060000          add [0x0],al
0000186C  0000              add [bx+si],al
0000186E  0000              add [bx+si],al
00001870  1D0000            sbb ax,0x0
00001873  002E0000          add [0x0],ch
00001877  0008              add [bx+si],cl
00001879  0000              add [bx+si],al
0000187B  0000              add [bx+si],al
0000187D  0000              add [bx+si],al
0000187F  0018              add [bx+si],bl
00001881  0000              add [bx+si],al
00001883  0000              add [bx+si],al
00001885  0000              add [bx+si],al
00001887  0009              add [bx+di],cl
00001889  0000              add [bx+si],al
0000188B  0003              add [bp+di],al
0000188D  0000              add [bx+si],al
0000188F  0000              add [bx+si],al
00001891  0000              add [bx+si],al
00001893  0000              add [bx+si],al
00001895  0000              add [bx+si],al
00001897  0000              add [bx+si],al
00001899  0000              add [bx+si],al
0000189B  0000              add [bx+si],al
0000189D  0000              add [bx+si],al
0000189F  00C8              add al,cl
000018A1  1E                push ds
000018A2  0000              add [bx+si],al
000018A4  0000              add [bx+si],al
000018A6  0000              add [bx+si],al
000018A8  F1                int1
000018A9  0100              add [bx+si],ax
000018AB  0000              add [bx+si],al
000018AD  0000              add [bx+si],al
000018AF  0000              add [bx+si],al
000018B1  0000              add [bx+si],al
000018B3  0000              add [bx+si],al
000018B5  0000              add [bx+si],al
000018B7  0001              add [bx+di],al
000018B9  0000              add [bx+si],al
000018BB  0000              add [bx+si],al
000018BD  0000              add [bx+si],al
000018BF  0000              add [bx+si],al
000018C1  0000              add [bx+si],al
000018C3  0000              add [bx+si],al
000018C5  0000              add [bx+si],al
000018C7  0000              add [bx+si],al
000018C9  0000              add [bx+si],al
000018CB  0000              add [bx+si],al
000018CD  0000              add [bx+si],al
000018CF  0000              add [bx+si],al
000018D1  0000              add [bx+si],al
000018D3  0000              add [bx+si],al
000018D5  0000              add [bx+si],al
000018D7  0000              add [bx+si],al
000018D9  0000              add [bx+si],al
000018DB  0000              add [bx+si],al
000018DD  0000              add [bx+si],al
000018DF  0000              add [bx+si],al
000018E1  0000              add [bx+si],al
000018E3  0003              add [bp+di],al
000018E5  0001              add [bx+di],al
000018E7  0038              add [bx+si],bh
000018E9  024000            add al,[bx+si+0x0]
000018EC  0000              add [bx+si],al
000018EE  0000              add [bx+si],al
000018F0  0000              add [bx+si],al
000018F2  0000              add [bx+si],al
000018F4  0000              add [bx+si],al
000018F6  0000              add [bx+si],al
000018F8  0000              add [bx+si],al
000018FA  0000              add [bx+si],al
000018FC  0300              add ax,[bx+si]
000018FE  0200              add al,[bx+si]
00001900  54                push sp
00001901  024000            add al,[bx+si+0x0]
00001904  0000              add [bx+si],al
00001906  0000              add [bx+si],al
00001908  0000              add [bx+si],al
0000190A  0000              add [bx+si],al
0000190C  0000              add [bx+si],al
0000190E  0000              add [bx+si],al
00001910  0000              add [bx+si],al
00001912  0000              add [bx+si],al
00001914  0300              add ax,[bx+si]
00001916  0300              add ax,[bx+si]
00001918  7402              jz 0x191c
0000191A  40                inc ax
0000191B  0000              add [bx+si],al
0000191D  0000              add [bx+si],al
0000191F  0000              add [bx+si],al
00001921  0000              add [bx+si],al
00001923  0000              add [bx+si],al
00001925  0000              add [bx+si],al
00001927  0000              add [bx+si],al
00001929  0000              add [bx+si],al
0000192B  0003              add [bp+di],al
0000192D  0004              add [si],al
0000192F  00980240          add [bx+si+0x4002],bl
00001933  0000              add [bx+si],al
00001935  0000              add [bx+si],al
00001937  0000              add [bx+si],al
00001939  0000              add [bx+si],al
0000193B  0000              add [bx+si],al
0000193D  0000              add [bx+si],al
0000193F  0000              add [bx+si],al
00001941  0000              add [bx+si],al
00001943  0003              add [bp+di],al
00001945  0005              add [di],al
00001947  00B80240          add [bx+si+0x4002],bh
0000194B  0000              add [bx+si],al
0000194D  0000              add [bx+si],al
0000194F  0000              add [bx+si],al
00001951  0000              add [bx+si],al
00001953  0000              add [bx+si],al
00001955  0000              add [bx+si],al
00001957  0000              add [bx+si],al
00001959  0000              add [bx+si],al
0000195B  0003              add [bp+di],al
0000195D  00060018          add [0x1800],al
00001961  034000            add ax,[bx+si+0x0]
00001964  0000              add [bx+si],al
00001966  0000              add [bx+si],al
00001968  0000              add [bx+si],al
0000196A  0000              add [bx+si],al
0000196C  0000              add [bx+si],al
0000196E  0000              add [bx+si],al
00001970  0000              add [bx+si],al
00001972  0000              add [bx+si],al
00001974  0300              add ax,[bx+si]
00001976  07                pop es
00001977  005603            add [bp+0x3],dl
0000197A  40                inc ax
0000197B  0000              add [bx+si],al
0000197D  0000              add [bx+si],al
0000197F  0000              add [bx+si],al
00001981  0000              add [bx+si],al
00001983  0000              add [bx+si],al
00001985  0000              add [bx+si],al
00001987  0000              add [bx+si],al
00001989  0000              add [bx+si],al
0000198B  0003              add [bp+di],al
0000198D  0008              add [bx+si],cl
0000198F  006003            add [bx+si+0x3],ah
00001992  40                inc ax
00001993  0000              add [bx+si],al
00001995  0000              add [bx+si],al
00001997  0000              add [bx+si],al
00001999  0000              add [bx+si],al
0000199B  0000              add [bx+si],al
0000199D  0000              add [bx+si],al
0000199F  0000              add [bx+si],al
000019A1  0000              add [bx+si],al
000019A3  0003              add [bp+di],al
000019A5  0009              add [bx+di],cl
000019A7  00800340          add [bx+si+0x4003],al
000019AB  0000              add [bx+si],al
000019AD  0000              add [bx+si],al
000019AF  0000              add [bx+si],al
000019B1  0000              add [bx+si],al
000019B3  0000              add [bx+si],al
000019B5  0000              add [bx+si],al
000019B7  0000              add [bx+si],al
000019B9  0000              add [bx+si],al
000019BB  0003              add [bp+di],al
000019BD  000A              add [bp+si],cl
000019BF  00980340          add [bx+si+0x4003],bl
000019C3  0000              add [bx+si],al
000019C5  0000              add [bx+si],al
000019C7  0000              add [bx+si],al
000019C9  0000              add [bx+si],al
000019CB  0000              add [bx+si],al
000019CD  0000              add [bx+si],al
000019CF  0000              add [bx+si],al
000019D1  0000              add [bx+si],al
000019D3  0003              add [bp+di],al
000019D5  000B              add [bp+di],cl
000019D7  00C8              add al,cl
000019D9  034000            add ax,[bx+si+0x0]
000019DC  0000              add [bx+si],al
000019DE  0000              add [bx+si],al
000019E0  0000              add [bx+si],al
000019E2  0000              add [bx+si],al
000019E4  0000              add [bx+si],al
000019E6  0000              add [bx+si],al
000019E8  0000              add [bx+si],al
000019EA  0000              add [bx+si],al
000019EC  0300              add ax,[bx+si]
000019EE  0C00              or al,0x0
000019F0  E003              loopne 0x19f5
000019F2  40                inc ax
000019F3  0000              add [bx+si],al
000019F5  0000              add [bx+si],al
000019F7  0000              add [bx+si],al
000019F9  0000              add [bx+si],al
000019FB  0000              add [bx+si],al
000019FD  0000              add [bx+si],al
000019FF  0000              add [bx+si],al
00001A01  0000              add [bx+si],al
00001A03  0003              add [bp+di],al
00001A05  000D              add [di],cl
00001A07  0010              add [bx+si],dl
00001A09  0440              add al,0x40
00001A0B  0000              add [bx+si],al
00001A0D  0000              add [bx+si],al
00001A0F  0000              add [bx+si],al
00001A11  0000              add [bx+si],al
00001A13  0000              add [bx+si],al
00001A15  0000              add [bx+si],al
00001A17  0000              add [bx+si],al
00001A19  0000              add [bx+si],al
00001A1B  0003              add [bp+di],al
00001A1D  000E00E8          add [0xe800],cl
00001A21  054000            add ax,0x40
00001A24  0000              add [bx+si],al
00001A26  0000              add [bx+si],al
00001A28  0000              add [bx+si],al
00001A2A  0000              add [bx+si],al
00001A2C  0000              add [bx+si],al
00001A2E  0000              add [bx+si],al
00001A30  0000              add [bx+si],al
00001A32  0000              add [bx+si],al
00001A34  0300              add ax,[bx+si]
00001A36  0F                db 0x0f
00001A37  00F8              add al,bh
00001A39  054000            add ax,0x40
00001A3C  0000              add [bx+si],al
00001A3E  0000              add [bx+si],al
00001A40  0000              add [bx+si],al
00001A42  0000              add [bx+si],al
00001A44  0000              add [bx+si],al
00001A46  0000              add [bx+si],al
00001A48  0000              add [bx+si],al
00001A4A  0000              add [bx+si],al
00001A4C  0300              add ax,[bx+si]
00001A4E  1000              adc [bx+si],al
00001A50  08064000          or [0x40],al
00001A54  0000              add [bx+si],al
00001A56  0000              add [bx+si],al
00001A58  0000              add [bx+si],al
00001A5A  0000              add [bx+si],al
00001A5C  0000              add [bx+si],al
00001A5E  0000              add [bx+si],al
00001A60  0000              add [bx+si],al
00001A62  0000              add [bx+si],al
00001A64  0300              add ax,[bx+si]
00001A66  1100              adc [bx+si],ax
00001A68  38064000          cmp [0x40],al
00001A6C  0000              add [bx+si],al
00001A6E  0000              add [bx+si],al
00001A70  0000              add [bx+si],al
00001A72  0000              add [bx+si],al
00001A74  0000              add [bx+si],al
00001A76  0000              add [bx+si],al
00001A78  0000              add [bx+si],al
00001A7A  0000              add [bx+si],al
00001A7C  0300              add ax,[bx+si]
00001A7E  1200              adc al,[bx+si]
00001A80  280E6000          sub [0x60],cl
00001A84  0000              add [bx+si],al
00001A86  0000              add [bx+si],al
00001A88  0000              add [bx+si],al
00001A8A  0000              add [bx+si],al
00001A8C  0000              add [bx+si],al
00001A8E  0000              add [bx+si],al
00001A90  0000              add [bx+si],al
00001A92  0000              add [bx+si],al
00001A94  0300              add ax,[bx+si]
00001A96  1300              adc ax,[bx+si]
00001A98  380E6000          cmp [0x60],cl
00001A9C  0000              add [bx+si],al
00001A9E  0000              add [bx+si],al
00001AA0  0000              add [bx+si],al
00001AA2  0000              add [bx+si],al
00001AA4  0000              add [bx+si],al
00001AA6  0000              add [bx+si],al
00001AA8  0000              add [bx+si],al
00001AAA  0000              add [bx+si],al
00001AAC  0300              add ax,[bx+si]
00001AAE  1400              adc al,0x0
00001AB0  48                dec ax
00001AB1  0E                push cs
00001AB2  60                pushaw
00001AB3  0000              add [bx+si],al
00001AB5  0000              add [bx+si],al
00001AB7  0000              add [bx+si],al
00001AB9  0000              add [bx+si],al
00001ABB  0000              add [bx+si],al
00001ABD  0000              add [bx+si],al
00001ABF  0000              add [bx+si],al
00001AC1  0000              add [bx+si],al
00001AC3  0003              add [bp+di],al
00001AC5  0015              add [di],dl
00001AC7  00500E            add [bx+si+0xe],dl
00001ACA  60                pushaw
00001ACB  0000              add [bx+si],al
00001ACD  0000              add [bx+si],al
00001ACF  0000              add [bx+si],al
00001AD1  0000              add [bx+si],al
00001AD3  0000              add [bx+si],al
00001AD5  0000              add [bx+si],al
00001AD7  0000              add [bx+si],al
00001AD9  0000              add [bx+si],al
00001ADB  0003              add [bp+di],al
00001ADD  001600E0          add [0xe000],dl
00001AE1  0F6000            punpcklbw mm0,[bx+si]
00001AE4  0000              add [bx+si],al
00001AE6  0000              add [bx+si],al
00001AE8  0000              add [bx+si],al
00001AEA  0000              add [bx+si],al
00001AEC  0000              add [bx+si],al
00001AEE  0000              add [bx+si],al
00001AF0  0000              add [bx+si],al
00001AF2  0000              add [bx+si],al
00001AF4  0300              add ax,[bx+si]
00001AF6  17                pop ss
00001AF7  00E8              add al,ch
00001AF9  0F6000            punpcklbw mm0,[bx+si]
00001AFC  0000              add [bx+si],al
00001AFE  0000              add [bx+si],al
00001B00  0000              add [bx+si],al
00001B02  0000              add [bx+si],al
00001B04  0000              add [bx+si],al
00001B06  0000              add [bx+si],al
00001B08  0000              add [bx+si],al
00001B0A  0000              add [bx+si],al
00001B0C  0300              add ax,[bx+si]
00001B0E  1800              sbb [bx+si],al
00001B10  1010              adc [bx+si],dl
00001B12  60                pushaw
00001B13  0000              add [bx+si],al
00001B15  0000              add [bx+si],al
00001B17  0000              add [bx+si],al
00001B19  0000              add [bx+si],al
00001B1B  0000              add [bx+si],al
00001B1D  0000              add [bx+si],al
00001B1F  0000              add [bx+si],al
00001B21  0000              add [bx+si],al
00001B23  0003              add [bp+di],al
00001B25  0019              add [bx+di],bl
00001B27  0020              add [bx+si],ah
00001B29  106000            adc [bx+si+0x0],ah
00001B2C  0000              add [bx+si],al
00001B2E  0000              add [bx+si],al
00001B30  0000              add [bx+si],al
00001B32  0000              add [bx+si],al
00001B34  0000              add [bx+si],al
00001B36  0000              add [bx+si],al
00001B38  0000              add [bx+si],al
00001B3A  0000              add [bx+si],al
00001B3C  0300              add ax,[bx+si]
00001B3E  1A00              sbb al,[bx+si]
00001B40  0000              add [bx+si],al
00001B42  0000              add [bx+si],al
00001B44  0000              add [bx+si],al
00001B46  0000              add [bx+si],al
00001B48  0000              add [bx+si],al
00001B4A  0000              add [bx+si],al
00001B4C  0000              add [bx+si],al
00001B4E  0000              add [bx+si],al
00001B50  0100              add [bx+si],ax
00001B52  0000              add [bx+si],al
00001B54  0200              add al,[bx+si]
00001B56  0D003C            or ax,0x3c00
00001B59  0440              add al,0x40
00001B5B  0000              add [bx+si],al
00001B5D  0000              add [bx+si],al
00001B5F  0000              add [bx+si],al
00001B61  0000              add [bx+si],al
00001B63  0000              add [bx+si],al
00001B65  0000              add [bx+si],al
00001B67  0011              add [bx+di],dl
00001B69  0000              add [bx+si],al
00001B6B  0004              add [si],al
00001B6D  00F1              add cl,dh
00001B6F  FF00              inc word [bx+si]
00001B71  0000              add [bx+si],al
00001B73  0000              add [bx+si],al
00001B75  0000              add [bx+si],al
00001B77  0000              add [bx+si],al
00001B79  0000              add [bx+si],al
00001B7B  0000              add [bx+si],al
00001B7D  0000              add [bx+si],al
00001B7F  001C              add [si],bl
00001B81  0000              add [bx+si],al
00001B83  0001              add [bx+di],al
00001B85  0012              add [bp+si],dl
00001B87  0028              add [bx+si],ch
00001B89  0E                push cs
00001B8A  60                pushaw
00001B8B  0000              add [bx+si],al
00001B8D  0000              add [bx+si],al
00001B8F  0000              add [bx+si],al
00001B91  0000              add [bx+si],al
00001B93  0000              add [bx+si],al
00001B95  0000              add [bx+si],al
00001B97  002A              add [bp+si],ch
00001B99  0000              add [bx+si],al
00001B9B  0001              add [bx+di],al
00001B9D  0013              add [bp+di],dl
00001B9F  0038              add [bx+si],bh
00001BA1  0E                push cs
00001BA2  60                pushaw
00001BA3  0000              add [bx+si],al
00001BA5  0000              add [bx+si],al
00001BA7  0000              add [bx+si],al
00001BA9  0000              add [bx+si],al
00001BAB  0000              add [bx+si],al
00001BAD  0000              add [bx+si],al
00001BAF  0038              add [bx+si],bh
00001BB1  0000              add [bx+si],al
00001BB3  0001              add [bx+di],al
00001BB5  0014              add [si],dl
00001BB7  00480E            add [bx+si+0xe],cl
00001BBA  60                pushaw
00001BBB  0000              add [bx+si],al
00001BBD  0000              add [bx+si],al
00001BBF  0000              add [bx+si],al
00001BC1  0000              add [bx+si],al
00001BC3  0000              add [bx+si],al
00001BC5  0000              add [bx+si],al
00001BC7  004500            add [di+0x0],al
00001BCA  0000              add [bx+si],al
00001BCC  0200              add al,[bx+si]
00001BCE  0D0060            or ax,0x6000
00001BD1  0440              add al,0x40
00001BD3  0000              add [bx+si],al
00001BD5  0000              add [bx+si],al
00001BD7  0000              add [bx+si],al
00001BD9  0000              add [bx+si],al
00001BDB  0000              add [bx+si],al
00001BDD  0000              add [bx+si],al
00001BDF  005B00            add [bp+di+0x0],bl
00001BE2  0000              add [bx+si],al
00001BE4  0100              add [bx+si],ax
00001BE6  1900              sbb [bx+si],ax
00001BE8  2010              and [bx+si],dl
00001BEA  60                pushaw
00001BEB  0000              add [bx+si],al
00001BED  0000              add [bx+si],al
00001BEF  0001              add [bx+di],al
00001BF1  0000              add [bx+si],al
00001BF3  0000              add [bx+si],al
00001BF5  0000              add [bx+si],al
00001BF7  006A00            add [bp+si+0x0],ch
00001BFA  0000              add [bx+si],al
00001BFC  0100              add [bx+si],ax
00001BFE  1900              sbb [bx+si],ax
00001C00  2810              sub [bx+si],dl
00001C02  60                pushaw
00001C03  0000              add [bx+si],al
00001C05  0000              add [bx+si],al
00001C07  0008              add [bx+si],cl
00001C09  0000              add [bx+si],al
00001C0B  0000              add [bx+si],al
00001C0D  0000              add [bx+si],al
00001C0F  007800            add [bx+si+0x0],bh
00001C12  0000              add [bx+si],al
00001C14  0200              add al,[bx+si]
00001C16  0D00D0            or ax,0xd000
00001C19  0440              add al,0x40
00001C1B  0000              add [bx+si],al
00001C1D  0000              add [bx+si],al
00001C1F  0000              add [bx+si],al
00001C21  0000              add [bx+si],al
00001C23  0000              add [bx+si],al
00001C25  0000              add [bx+si],al
00001C27  0011              add [bx+di],dl
00001C29  0000              add [bx+si],al
00001C2B  0004              add [si],al
00001C2D  00F1              add cl,dh
00001C2F  FF00              inc word [bx+si]
00001C31  0000              add [bx+si],al
00001C33  0000              add [bx+si],al
00001C35  0000              add [bx+si],al
00001C37  0000              add [bx+si],al
00001C39  0000              add [bx+si],al
00001C3B  0000              add [bx+si],al
00001C3D  0000              add [bx+si],al
00001C3F  00840000          add [si+0x0],al
00001C43  0001              add [bx+di],al
00001C45  0012              add [bp+si],dl
00001C47  0030              add [bx+si],dh
00001C49  0E                push cs
00001C4A  60                pushaw
00001C4B  0000              add [bx+si],al
00001C4D  0000              add [bx+si],al
00001C4F  0000              add [bx+si],al
00001C51  0000              add [bx+si],al
00001C53  0000              add [bx+si],al
00001C55  0000              add [bx+si],al
00001C57  00910000          add [bx+di+0x0],dl
00001C5B  0001              add [bx+di],al
00001C5D  0011              add [bx+di],dl
00001C5F  00D8              add al,bl
00001C61  06                push es
00001C62  40                inc ax
00001C63  0000              add [bx+si],al
00001C65  0000              add [bx+si],al
00001C67  0000              add [bx+si],al
00001C69  0000              add [bx+si],al
00001C6B  0000              add [bx+si],al
00001C6D  0000              add [bx+si],al
00001C6F  009F0000          add [bx+0x0],bl
00001C73  0001              add [bx+di],al
00001C75  0014              add [si],dl
00001C77  00480E            add [bx+si+0xe],cl
00001C7A  60                pushaw
00001C7B  0000              add [bx+si],al
00001C7D  0000              add [bx+si],al
00001C7F  0000              add [bx+si],al
00001C81  0000              add [bx+si],al
00001C83  0000              add [bx+si],al
00001C85  0000              add [bx+si],al
00001C87  00AB0000          add [bp+di+0x0],ch
00001C8B  0002              add [bp+si],al
00001C8D  000D              add [di],cl
00001C8F  00B00540          add [bx+si+0x4005],dh
00001C93  0000              add [bx+si],al
00001C95  0000              add [bx+si],al
00001C97  0000              add [bx+si],al
00001C99  0000              add [bx+si],al
00001C9B  0000              add [bx+si],al
00001C9D  0000              add [bx+si],al
00001C9F  00C1              add cl,al
00001CA1  0000              add [bx+si],al
00001CA3  0004              add [si],al
00001CA5  00F1              add cl,dh
00001CA7  FF00              inc word [bx+si]
00001CA9  0000              add [bx+si],al
00001CAB  0000              add [bx+si],al
00001CAD  0000              add [bx+si],al
00001CAF  0000              add [bx+si],al
00001CB1  0000              add [bx+si],al
00001CB3  0000              add [bx+si],al
00001CB5  0000              add [bx+si],al
00001CB7  00C9              add cl,cl
00001CB9  0000              add [bx+si],al
00001CBB  0000              add [bx+si],al
00001CBD  0012              add [bp+si],dl
00001CBF  0024              add [si],ah
00001CC1  0E                push cs
00001CC2  60                pushaw
00001CC3  0000              add [bx+si],al
00001CC5  0000              add [bx+si],al
00001CC7  0000              add [bx+si],al
00001CC9  0000              add [bx+si],al
00001CCB  0000              add [bx+si],al
00001CCD  0000              add [bx+si],al
00001CCF  00DA              add dl,bl
00001CD1  0000              add [bx+si],al
00001CD3  0001              add [bx+di],al
00001CD5  0015              add [di],dl
00001CD7  00500E            add [bx+si+0xe],dl
00001CDA  60                pushaw
00001CDB  0000              add [bx+si],al
00001CDD  0000              add [bx+si],al
00001CDF  0000              add [bx+si],al
00001CE1  0000              add [bx+si],al
00001CE3  0000              add [bx+si],al
00001CE5  0000              add [bx+si],al
00001CE7  00E3              add bl,ah
00001CE9  0000              add [bx+si],al
00001CEB  0000              add [bx+si],al
00001CED  0012              add [bp+si],dl
00001CEF  0024              add [si],ah
00001CF1  0E                push cs
00001CF2  60                pushaw
00001CF3  0000              add [bx+si],al
00001CF5  0000              add [bx+si],al
00001CF7  0000              add [bx+si],al
00001CF9  0000              add [bx+si],al
00001CFB  0000              add [bx+si],al
00001CFD  0000              add [bx+si],al
00001CFF  00F6              add dh,dh
00001D01  0000              add [bx+si],al
00001D03  0001              add [bx+di],al
00001D05  0017              add [bx],dl
00001D07  00E8              add al,ch
00001D09  0F6000            punpcklbw mm0,[bx+si]
00001D0C  0000              add [bx+si],al
00001D0E  0000              add [bx+si],al
00001D10  0000              add [bx+si],al
00001D12  0000              add [bx+si],al
00001D14  0000              add [bx+si],al
00001D16  0000              add [bx+si],al
00001D18  0C01              or al,0x1
00001D1A  0000              add [bx+si],al
00001D1C  1200              adc al,[bx+si]
00001D1E  0D00A0            or ax,0xa000
00001D21  054000            add ax,0x40
00001D24  0000              add [bx+si],al
00001D26  0000              add [bx+si],al
00001D28  0200              add al,[bx+si]
00001D2A  0000              add [bx+si],al
00001D2C  0000              add [bx+si],al
00001D2E  0000              add [bx+si],al
00001D30  1C01              sbb al,0x1
00001D32  0000              add [bx+si],al
00001D34  2000              and [bx+si],al
00001D36  1800              sbb [bx+si],al
00001D38  1010              adc [bx+si],dl
00001D3A  60                pushaw
00001D3B  0000              add [bx+si],al
00001D3D  0000              add [bx+si],al
00001D3F  0000              add [bx+si],al
00001D41  0000              add [bx+si],al
00001D43  0000              add [bx+si],al
00001D45  0000              add [bx+si],al
00001D47  0027              add [bx],ah
00001D49  0100              add [bx+si],ax
00001D4B  0012              add [bp+si],dl
00001D4D  0000              add [bx+si],al
00001D4F  0000              add [bx+si],al
00001D51  0000              add [bx+si],al
00001D53  0000              add [bx+si],al
00001D55  0000              add [bx+si],al
00001D57  0000              add [bx+si],al
00001D59  0000              add [bx+si],al
00001D5B  0000              add [bx+si],al
00001D5D  0000              add [bx+si],al
00001D5F  0039              add [bx+di],bh
00001D61  0100              add [bx+si],ax
00001D63  0010              add [bx+si],dl
00001D65  00F1              add cl,dh
00001D67  FF20              jmp word near [bx+si]
00001D69  106000            adc [bx+si+0x0],ah
00001D6C  0000              add [bx+si],al
00001D6E  0000              add [bx+si],al
00001D70  0000              add [bx+si],al
00001D72  0000              add [bx+si],al
00001D74  0000              add [bx+si],al
00001D76  0000              add [bx+si],al
00001D78  40                inc ax
00001D79  0100              add [bx+si],ax
00001D7B  0012              add [bp+si],dl
00001D7D  000E00E8          add [0xe800],cl
00001D81  054000            add ax,0x40
00001D84  0000              add [bx+si],al
00001D86  0000              add [bx+si],al
00001D88  0000              add [bx+si],al
00001D8A  0000              add [bx+si],al
00001D8C  0000              add [bx+si],al
00001D8E  0000              add [bx+si],al
00001D90  46                inc si
00001D91  0100              add [bx+si],ax
00001D93  0011              add [bx+di],dl
00001D95  0213              add dl,[bp+di]
00001D97  00400E            add [bx+si+0xe],al
00001D9A  60                pushaw
00001D9B  0000              add [bx+si],al
00001D9D  0000              add [bx+si],al
00001D9F  0000              add [bx+si],al
00001DA1  0000              add [bx+si],al
00001DA3  0000              add [bx+si],al
00001DA5  0000              add [bx+si],al
00001DA7  005301            add [bp+di+0x1],dl
00001DAA  0000              add [bx+si],al
00001DAC  1200              adc al,[bx+si]
00001DAE  0000              add [bx+si],al
00001DB0  0000              add [bx+si],al
00001DB2  0000              add [bx+si],al
00001DB4  0000              add [bx+si],al
00001DB6  0000              add [bx+si],al
00001DB8  0000              add [bx+si],al
00001DBA  0000              add [bx+si],al
00001DBC  0000              add [bx+si],al
00001DBE  0000              add [bx+si],al
00001DC0  7201              jc 0x1dc3
00001DC2  0000              add [bx+si],al
00001DC4  1000              adc [bx+si],al
00001DC6  1800              sbb [bx+si],al
00001DC8  1010              adc [bx+si],dl
00001DCA  60                pushaw
00001DCB  0000              add [bx+si],al
00001DCD  0000              add [bx+si],al
00001DCF  0000              add [bx+si],al
00001DD1  0000              add [bx+si],al
00001DD3  0000              add [bx+si],al
00001DD5  0000              add [bx+si],al
00001DD7  007F01            add [bx+0x1],bh
00001DDA  0000              add [bx+si],al
00001DDC  2000              and [bx+si],al
00001DDE  0000              add [bx+si],al
00001DE0  0000              add [bx+si],al
00001DE2  0000              add [bx+si],al
00001DE4  0000              add [bx+si],al
00001DE6  0000              add [bx+si],al
00001DE8  0000              add [bx+si],al
00001DEA  0000              add [bx+si],al
00001DEC  0000              add [bx+si],al
00001DEE  0000              add [bx+si],al
00001DF0  8E01              mov es,[bx+di]
00001DF2  0000              add [bx+si],al
00001DF4  1102              adc [bp+si],ax
00001DF6  1800              sbb [bx+si],al
00001DF8  1810              sbb [bx+si],dl
00001DFA  60                pushaw
00001DFB  0000              add [bx+si],al
00001DFD  0000              add [bx+si],al
00001DFF  0000              add [bx+si],al
00001E01  0000              add [bx+si],al
00001E03  0000              add [bx+si],al
00001E05  0000              add [bx+si],al
00001E07  009B0100          add [bp+di+0x1],bl
00001E0B  0011              add [bx+di],dl
00001E0D  000F              add [bx],cl
00001E0F  00F8              add al,bh
00001E11  054000            add ax,0x40
00001E14  0000              add [bx+si],al
00001E16  0000              add [bx+si],al
00001E18  0400              add al,0x0
00001E1A  0000              add [bx+si],al
00001E1C  0000              add [bx+si],al
00001E1E  0000              add [bx+si],al
00001E20  AA                stosb
00001E21  0100              add [bx+si],ax
00001E23  0012              add [bp+si],dl
00001E25  000D              add [di],cl
00001E27  0010              add [bx+si],dl
00001E29  054000            add ax,0x40
00001E2C  0000              add [bx+si],al
00001E2E  0000              add [bx+si],al
00001E30  8900              mov [bx+si],ax
00001E32  0000              add [bx+si],al
00001E34  0000              add [bx+si],al
00001E36  0000              add [bx+si],al
00001E38  BA0100            mov dx,0x1
00001E3B  0010              add [bx+si],dl
00001E3D  00F1              add cl,dh
00001E3F  FF30              push word [bx+si]
00001E41  106000            adc [bx+si+0x0],ah
00001E44  0000              add [bx+si],al
00001E46  0000              add [bx+si],al
00001E48  0000              add [bx+si],al
00001E4A  0000              add [bx+si],al
00001E4C  0000              add [bx+si],al
00001E4E  0000              add [bx+si],al
00001E50  BF0100            mov di,0x1
00001E53  0012              add [bp+si],dl
00001E55  000D              add [di],cl
00001E57  0010              add [bx+si],dl
00001E59  0440              add al,0x40
00001E5B  0000              add [bx+si],al
00001E5D  0000              add [bx+si],al
00001E5F  0000              add [bx+si],al
00001E61  0000              add [bx+si],al
00001E63  0000              add [bx+si],al
00001E65  0000              add [bx+si],al
00001E67  00C6              add dh,al
00001E69  0100              add [bx+si],ax
00001E6B  0010              add [bx+si],dl
00001E6D  00F1              add cl,dh
00001E6F  FF20              jmp word near [bx+si]
00001E71  106000            adc [bx+si+0x0],ah
00001E74  0000              add [bx+si],al
00001E76  0000              add [bx+si],al
00001E78  0000              add [bx+si],al
00001E7A  0000              add [bx+si],al
00001E7C  0000              add [bx+si],al
00001E7E  0000              add [bx+si],al
00001E80  D201              rol byte [bx+di],cl
00001E82  0000              add [bx+si],al
00001E84  1200              adc al,[bx+si]
00001E86  0D00F4            or ax,0xf400
00001E89  0440              add al,0x40
00001E8B  0000              add [bx+si],al
00001E8D  0000              add [bx+si],al
00001E8F  0010              add [bx+si],dl
00001E91  0000              add [bx+si],al
00001E93  0000              add [bx+si],al
00001E95  0000              add [bx+si],al
00001E97  00D7              add bh,dl
00001E99  0100              add [bx+si],ax
00001E9B  0020              add [bx+si],ah
00001E9D  0000              add [bx+si],al
00001E9F  0000              add [bx+si],al
00001EA1  0000              add [bx+si],al
00001EA3  0000              add [bx+si],al
00001EA5  0000              add [bx+si],al
00001EA7  0000              add [bx+si],al
00001EA9  0000              add [bx+si],al
00001EAB  0000              add [bx+si],al
00001EAD  0000              add [bx+si],al
00001EAF  00EB              add bl,ch
00001EB1  0100              add [bx+si],ax
00001EB3  0012              add [bp+si],dl
00001EB5  000B              add [bp+di],cl
00001EB7  00C8              add al,cl
00001EB9  034000            add ax,[bx+si+0x0]
00001EBC  0000              add [bx+si],al
00001EBE  0000              add [bx+si],al
00001EC0  0000              add [bx+si],al
00001EC2  0000              add [bx+si],al
00001EC4  0000              add [bx+si],al
00001EC6  0000              add [bx+si],al
00001EC8  006361            add [bp+di+0x61],ah
00001ECB  6C                insb
00001ECC  6C                insb
00001ECD  5F                pop di
00001ECE  676D              a32 insw
00001ED0  6F                outsw
00001ED1  6E                outsb
00001ED2  5F                pop di
00001ED3  7374              jnc 0x1f49
00001ED5  61                popaw
00001ED6  7274              jc 0x1f4c
00001ED8  006372            add [bp+di+0x72],ah
00001EDB  7473              jz 0x1f50
00001EDD  7475              jz 0x1f54
00001EDF  66662E6300        o32 arpl [cs:bx+si],ax
00001EE4  5F                pop di
00001EE5  5F                pop di
00001EE6  43                inc bx
00001EE7  54                push sp
00001EE8  4F                dec di
00001EE9  52                push dx
00001EEA  5F                pop di
00001EEB  4C                dec sp
00001EEC  49                dec cx
00001EED  53                push bx
00001EEE  54                push sp
00001EEF  5F                pop di
00001EF0  5F                pop di
00001EF1  005F5F            add [bx+0x5f],bl
00001EF4  44                inc sp
00001EF5  54                push sp
00001EF6  4F                dec di
00001EF7  52                push dx
00001EF8  5F                pop di
00001EF9  4C                dec sp
00001EFA  49                dec cx
00001EFB  53                push bx
00001EFC  54                push sp
00001EFD  5F                pop di
00001EFE  5F                pop di
00001EFF  005F5F            add [bx+0x5f],bl
00001F02  4A                dec dx
00001F03  43                inc bx
00001F04  52                push dx
00001F05  5F                pop di
00001F06  4C                dec sp
00001F07  49                dec cx
00001F08  53                push bx
00001F09  54                push sp
00001F0A  5F                pop di
00001F0B  5F                pop di
00001F0C  005F5F            add [bx+0x5f],bl
00001F0F  646F              fs outsw
00001F11  5F                pop di
00001F12  676C              a32 insb
00001F14  6F                outsw
00001F15  62616C            bound sp,[bx+di+0x6c]
00001F18  5F                pop di
00001F19  64746F            fs jz 0x1f8b
00001F1C  7273              jc 0x1f91
00001F1E  5F                pop di
00001F1F  61                popaw
00001F20  7578              jnz 0x1f9a
00001F22  00636F            add [bp+di+0x6f],ah
00001F25  6D                insw
00001F26  706C              jo 0x1f94
00001F28  657465            gs jz 0x1f90
00001F2B  642E36353331      ss xor ax,0x3133
00001F31  006474            add [si+0x74],ah
00001F34  6F                outsw
00001F35  725F              jc 0x1f96
00001F37  6964782E36        imul sp,[si+0x78],word 0x362e
00001F3C  353333            xor ax,0x3333
00001F3F  006672            add [bp+0x72],ah
00001F42  61                popaw
00001F43  6D                insw
00001F44  655F              gs pop di
00001F46  64756D            fs jnz 0x1fb6
00001F49  6D                insw
00001F4A  7900              jns 0x1f4c
00001F4C  5F                pop di
00001F4D  5F                pop di
00001F4E  43                inc bx
00001F4F  54                push sp
00001F50  4F                dec di
00001F51  52                push dx
00001F52  5F                pop di
00001F53  45                inc bp
00001F54  4E                dec si
00001F55  44                inc sp
00001F56  5F                pop di
00001F57  5F                pop di
00001F58  005F5F            add [bx+0x5f],bl
00001F5B  46                inc si
00001F5C  52                push dx
00001F5D  41                inc cx
00001F5E  4D                dec bp
00001F5F  45                inc bp
00001F60  5F                pop di
00001F61  45                inc bp
00001F62  4E                dec si
00001F63  44                inc sp
00001F64  5F                pop di
00001F65  5F                pop di
00001F66  005F5F            add [bx+0x5f],bl
00001F69  4A                dec dx
00001F6A  43                inc bx
00001F6B  52                push dx
00001F6C  5F                pop di
00001F6D  45                inc bp
00001F6E  4E                dec si
00001F6F  44                inc sp
00001F70  5F                pop di
00001F71  5F                pop di
00001F72  005F5F            add [bx+0x5f],bl
00001F75  646F              fs outsw
00001F77  5F                pop di
00001F78  676C              a32 insb
00001F7A  6F                outsw
00001F7B  62616C            bound sp,[bx+di+0x6c]
00001F7E  5F                pop di
00001F7F  63746F            arpl [si+0x6f],si
00001F82  7273              jc 0x1ff7
00001F84  5F                pop di
00001F85  61                popaw
00001F86  7578              jnz 0x2000
00001F88  006865            add [bx+si+0x65],ch
00001F8B  6C                insb
00001F8C  6C                insb
00001F8D  6F                outsw
00001F8E  2E6300            arpl [cs:bx+si],ax
00001F91  5F                pop di
00001F92  5F                pop di
00001F93  696E69745F        imul bp,[bp+0x69],word 0x5f74
00001F98  61                popaw
00001F99  7272              jc 0x200d
00001F9B  61                popaw
00001F9C  795F              jns 0x1ffd
00001F9E  656E              gs outsb
00001FA0  64005F44          add [fs:bx+0x44],bl
00001FA4  59                pop cx
00001FA5  4E                dec si
00001FA6  41                inc cx
00001FA7  4D                dec bp
00001FA8  49                dec cx
00001FA9  43                inc bx
00001FAA  005F5F            add [bx+0x5f],bl
00001FAD  696E69745F        imul bp,[bp+0x69],word 0x5f74
00001FB2  61                popaw
00001FB3  7272              jc 0x2027
00001FB5  61                popaw
00001FB6  795F              jns 0x2017
00001FB8  7374              jnc 0x202e
00001FBA  61                popaw
00001FBB  7274              jc 0x2031
00001FBD  005F47            add [bx+0x47],bl
00001FC0  4C                dec sp
00001FC1  4F                dec di
00001FC2  42                inc dx
00001FC3  41                inc cx
00001FC4  4C                dec sp
00001FC5  5F                pop di
00001FC6  4F                dec di
00001FC7  46                inc si
00001FC8  46                inc si
00001FC9  53                push bx
00001FCA  45                inc bp
00001FCB  54                push sp
00001FCC  5F                pop di
00001FCD  54                push sp
00001FCE  41                inc cx
00001FCF  42                inc dx
00001FD0  4C                dec sp
00001FD1  45                inc bp
00001FD2  5F                pop di
00001FD3  005F5F            add [bx+0x5f],bl
00001FD6  6C                insb
00001FD7  6962635F63        imul sp,[bp+si+0x63],word 0x635f
00001FDC  7375              jnc 0x2053
00001FDE  5F                pop di
00001FDF  66696E6900646174  imul ebp,[bp+0x69],dword 0x74616400
00001FE7  61                popaw
00001FE8  5F                pop di
00001FE9  7374              jnc 0x205f
00001FEB  61                popaw
00001FEC  7274              jc 0x2062
00001FEE  007075            add [bx+si+0x75],dh
00001FF1  7473              jz 0x2066
00001FF3  40                inc ax
00001FF4  40                inc ax
00001FF5  47                inc di
00001FF6  4C                dec sp
00001FF7  49                dec cx
00001FF8  42                inc dx
00001FF9  43                inc bx
00001FFA  5F                pop di
00001FFB  322E322E          xor ch,[0x2e32]
00001FFF  35005F            xor ax,0x5f00
00002002  656461            fs popaw
00002005  7461              jz 0x2068
00002007  005F66            add [bx+0x66],bl
0000200A  696E69005F        imul bp,[bp+0x69],word 0x5f00
0000200F  5F                pop di
00002010  44                inc sp
00002011  54                push sp
00002012  4F                dec di
00002013  52                push dx
00002014  5F                pop di
00002015  45                inc bp
00002016  4E                dec si
00002017  44                inc sp
00002018  5F                pop di
00002019  5F                pop di
0000201A  005F5F            add [bx+0x5f],bl
0000201D  6C                insb
0000201E  6962635F73        imul sp,[bp+si+0x63],word 0x735f
00002023  7461              jz 0x2086
00002025  7274              jc 0x209b
00002027  5F                pop di
00002028  6D                insw
00002029  61                popaw
0000202A  696E404047        imul bp,[bp+0x40],word 0x4740
0000202F  4C                dec sp
00002030  49                dec cx
00002031  42                inc dx
00002032  43                inc bx
00002033  5F                pop di
00002034  322E322E          xor ch,[0x2e32]
00002038  35005F            xor ax,0x5f00
0000203B  5F                pop di
0000203C  6461              fs popaw
0000203E  7461              jz 0x20a1
00002040  5F                pop di
00002041  7374              jnc 0x20b7
00002043  61                popaw
00002044  7274              jc 0x20ba
00002046  005F5F            add [bx+0x5f],bl
00002049  676D              a32 insw
0000204B  6F                outsw
0000204C  6E                outsb
0000204D  5F                pop di
0000204E  7374              jnc 0x20c4
00002050  61                popaw
00002051  7274              jc 0x20c7
00002053  5F                pop di
00002054  5F                pop di
00002055  005F5F            add [bx+0x5f],bl
00002058  64736F            fs jnc 0x20ca
0000205B  5F                pop di
0000205C  68616E            push word 0x6e61
0000205F  646C              fs insb
00002061  65005F49          add [gs:bx+0x49],bl
00002065  4F                dec di
00002066  5F                pop di
00002067  7374              jnc 0x20dd
00002069  64696E5F7573      imul bp,[fs:bp+0x5f],word 0x7375
0000206F  6564005F5F        add [fs:bx+0x5f],bl
00002074  6C                insb
00002075  6962635F63        imul sp,[bp+si+0x63],word 0x635f
0000207A  7375              jnc 0x20f1
0000207C  5F                pop di
0000207D  696E697400        imul bp,[bp+0x69],word 0x74
00002082  5F                pop di
00002083  656E              gs outsb
00002085  64005F73          add [fs:bx+0x73],bl
00002089  7461              jz 0x20ec
0000208B  7274              jc 0x2101
0000208D  005F5F            add [bx+0x5f],bl
00002090  627373            bound si,[bp+di+0x73]
00002093  5F                pop di
00002094  7374              jnc 0x210a
00002096  61                popaw
00002097  7274              jc 0x210d
00002099  006D61            add [di+0x61],ch
0000209C  696E005F4A        imul bp,[bp+0x0],word 0x4a5f
000020A1  765F              jna 0x2102
000020A3  52                push dx
000020A4  65676973746572    imul si,[gs:ebx+0x74],word 0x7265
000020AB  43                inc bx
000020AC  6C                insb
000020AD  61                popaw
000020AE  7373              jnc 0x2123
000020B0  657300            gs jnc 0x20b3
000020B3  5F                pop di
000020B4  696E697400        imul bp,[bp+0x69],word 0x74
